

HI-TECH Software PIC LITE Macro Assembler V9.82 build 9453 
                                                                                               Sat Feb 06 19:51:19 2021

HI-TECH Software Omniscient Code Generator (Lite mode) build 9453
     1  0000                     opt subtitle "HI-TECH Software Omniscient Code Generator (Lite mode) build 9453"
     2                           
     3                           opt pagewidth 120
     4                           
     5                           	opt lm
     6                           
     7                           	processor	16F690
     8                           clrc	macro
     9                           	bcf	3,0
    10  0000                     	endm
    11                           clrz	macro
    12                           	bcf	3,2
    13  0000                     	endm
    14                           setc	macro
    15                           	bsf	3,0
    16  0000                     	endm
    17                           setz	macro
    18                           	bsf	3,2
    19  0000                     	endm
    20                           skipc	macro
    21                           	btfss	3,0
    22  0000                     	endm
    23                           skipz	macro
    24                           	btfss	3,2
    25  0000                     	endm
    26                           skipnc	macro
    27                           	btfsc	3,0
    28  0000                     	endm
    29                           skipnz	macro
    30                           	btfsc	3,2
    31  0000                     	endm
    32  0000                     indf	equ	0
    33  0000                     indf0	equ	0
    34  0002                     pc	equ	2
    35  0002                     pcl	equ	2
    36  0003                     status	equ	3
    37  0004                     fsr	equ	4
    38  0004                     fsr0	equ	4
    39  0001                     c	equ	1
    40  0000                     z	equ	0
    41  000A                     pclath	equ	10
    42                           	FNCALL	_main,_LCDInit
    43                           	FNCALL	_main,_Message1
    44                           	FNCALL	_main,_Sbros
    45                           	FNCALL	_main,_LCDWrite
    46                           	FNCALL	_main,_buzz1
    47                           	FNCALL	_main,_Increment
    48                           	FNCALL	_Increment,_buzz1
    49                           	FNCALL	_Increment,_LCDWrite
    50                           	FNCALL	_Increment,_Message2
    51                           	FNCALL	_Message1,_LCDWrite
    52                           	FNCALL	_Message2,_LCDWrite
    53                           	FNCALL	_Sbros,_buzz2
    54                           	FNCALL	_LCDInit,_LCDWrite
    55                           	FNROOT	_main
    56                           	global	_mas
    57                           	global	_mas2
    58                           	global	_mas3
    59                           	global	_j
    60                           	global	_n
    61                           	global	_p
    62                           	global	_q
    63                           	global	_y
    64                           	global	_flag
    65                           	global	_t2
    66                           	global	_t3
    67                           	global	_t4
    68                           	global	_x
    69                           	global	_t1
    70                           	global	_PORTA
    71                           psect	text256,local,class=CODE,delta=2
    72                           global __ptext256
    73  0000                     __ptext256:
    74  0005                     _PORTA	set	5
    75                           	global	_PORTB
    76  0006                     _PORTB	set	6
    77                           	global	_PORTC
    78  0007                     _PORTC	set	7
    79                           	global	_CARRY
    80  0018                     _CARRY	set	24
    81                           	global	_GIE
    82  005F                     _GIE	set	95
    83                           	global	_RA0
    84  0028                     _RA0	set	40
    85                           	global	_RA1
    86  0029                     _RA1	set	41
    87                           	global	_RA2
    88  002A                     _RA2	set	42
    89                           	global	_RA3
    90  002B                     _RA3	set	43
    91                           	global	_RA4
    92  002C                     _RA4	set	44
    93                           	global	_RA5
    94  002D                     _RA5	set	45
    95                           	global	_RB4
    96  0034                     _RB4	set	52
    97                           	global	_RB5
    98  0035                     _RB5	set	53
    99                           	global	_RB6
   100  0036                     _RB6	set	54
   101                           	global	_RB7
   102  0037                     _RB7	set	55
   103                           	global	_RC4
   104  003C                     _RC4	set	60
   105                           	global	_RC5
   106  003D                     _RC5	set	61
   107                           	global	_TRISA
   108  0085                     _TRISA	set	133
   109                           	global	_TRISB
   110  0086                     _TRISB	set	134
   111                           	global	_TRISC
   112  0087                     _TRISC	set	135
   113                           	global	_ANSEL
   114  011E                     _ANSEL	set	286
   115                           	global	_EEADR
   116  010D                     _EEADR	set	269
   117                           	global	_EEDATA
   118  010C                     _EEDATA	set	268
   119                           	global	_EECON1
   120  018C                     _EECON1	set	396
   121                           	global	_EECON2
   122  018D                     _EECON2	set	397
   123                           	global	_RD
   124  0C60                     _RD	set	3168
   125                           	global	_WR
   126  0C61                     _WR	set	3169
   127                           	global	_WREN
   128  0C62                     _WREN	set	3170
   129                           	file	"upravlenije.as"
   130                           	line	#
   131                           psect cinit,class=CODE,delta=2
   132                           global start_initialization
   133  0084                     start_initialization:
   134                           
   135                           psect	bssCOMMON,class=COMMON,space=1
   136                           global __pbssCOMMON
   137  007B                     __pbssCOMMON:
   138  007B                     _x:
   139  007B                            ds      2
   140                           
   141  007D                     _t1:
   142  007D                            ds      1
   143                           
   144                           psect	bssBANK0,class=BANK0,space=1
   145                           global __pbssBANK0
   146  0020                     __pbssBANK0:
   147  0020                     _mas:
   148  0020                            ds      6
   149                           
   150  0026                     _mas2:
   151  0026                            ds      6
   152                           
   153  002C                     _mas3:
   154  002C                            ds      6
   155                           
   156  0032                     _j:
   157  0032                            ds      2
   158                           
   159  0034                     _n:
   160  0034                            ds      2
   161                           
   162  0036                     _p:
   163  0036                            ds      2
   164                           
   165  0038                     _q:
   166  0038                            ds      2
   167                           
   168  003A                     _y:
   169  003A                            ds      2
   170                           
   171  003C                     _flag:
   172  003C                            ds      1
   173                           
   174  003D                     _t2:
   175  003D                            ds      1
   176                           
   177  003E                     _t3:
   178  003E                            ds      1
   179                           
   180  003F                     _t4:
   181  003F                            ds      1
   182                           
   183                           psect clrtext,class=CODE,delta=2
   184                           global clear_ram
   185                           ;	Called with FSR containing the base address, and
   186                           ;	W with the last address+1
   187  007C                     clear_ram:
   188  007C  0064               	clrwdt			;clear the watchdog before getting into this loop
   189  007D                     clrloop:
   190  007D  0180               	clrf	indf		;clear RAM location pointed to by FSR
   191  007E  0A84               	incf	fsr,f		;increment pointer
   192  007F  0604               	xorwf	fsr,w		;XOR with final address
   193  0080  1903               	btfsc	status,2	;have we reached the end yet?
   194  0081  3400               	retlw	0		;all done for this memory range, return
   195  0082  0604               	xorwf	fsr,w		;XOR again to restore value
   196  0083  287D               	goto	clrloop		;do the next byte
   197                           
   198                           ; Clear objects allocated to COMMON
   199                           psect cinit,class=CODE,delta=2
   200  0084  01FB               	clrf	((__pbssCOMMON)+0)&07Fh
   201  0085  01FC               	clrf	((__pbssCOMMON)+1)&07Fh
   202  0086  01FD               	clrf	((__pbssCOMMON)+2)&07Fh
   203                           ; Clear objects allocated to BANK0
   204                           psect cinit,class=CODE,delta=2
   205  0087  1383               	bcf	status, 7	;select IRP bank0
   206  0088  3020               	movlw	low(__pbssBANK0)
   207  0089  0084               	movwf	fsr
   208  008A  3040               	movlw	low((__pbssBANK0)+020h)
   209  008B  118A  207C  118A   	fcall	clear_ram
   210                           psect cinit,class=CODE,delta=2
   211                           global end_of_initialization
   212                           
   213                           ;End of C runtime variable initialization code
   214                           
   215  008E                     end_of_initialization:
   216  008E  0183               clrf status
   217  008F  118A  2A9A         ljmp _main	;jump to C main() function
   218                           psect	cstackCOMMON,class=COMMON,space=1
   219                           global __pcstackCOMMON
   220  0070                     __pcstackCOMMON:
   221                           	global	??_buzz2
   222  0070                     ??_buzz2:	; 0 bytes @ 0x0
   223                           	global	??_buzz1
   224  0070                     ??_buzz1:	; 0 bytes @ 0x0
   225                           	global	?_LCDWrite
   226  0070                     ?_LCDWrite:	; 0 bytes @ 0x0
   227                           	global	?_LCDInit
   228  0070                     ?_LCDInit:	; 0 bytes @ 0x0
   229                           	global	?_buzz2
   230  0070                     ?_buzz2:	; 2 bytes @ 0x0
   231                           	global	?_buzz1
   232  0070                     ?_buzz1:	; 2 bytes @ 0x0
   233                           	global	?_Message2
   234  0070                     ?_Message2:	; 2 bytes @ 0x0
   235                           	global	?_Sbros
   236  0070                     ?_Sbros:	; 2 bytes @ 0x0
   237                           	global	?_Increment
   238  0070                     ?_Increment:	; 2 bytes @ 0x0
   239                           	global	?_Message1
   240  0070                     ?_Message1:	; 2 bytes @ 0x0
   241                           	global	?_main
   242  0070                     ?_main:	; 2 bytes @ 0x0
   243                           	global	LCDWrite@LCDData
   244  0070                     LCDWrite@LCDData:	; 2 bytes @ 0x0
   245  0070                     	ds	2
   246                           	global	??_Sbros
   247  0072                     ??_Sbros:	; 0 bytes @ 0x2
   248                           	global	LCDWrite@RSValue
   249  0072                     LCDWrite@RSValue:	; 2 bytes @ 0x2
   250  0072                     	ds	2
   251                           	global	??_LCDWrite
   252  0074                     ??_LCDWrite:	; 0 bytes @ 0x4
   253  0074                     	ds	2
   254                           	global	??_Message2
   255  0076                     ??_Message2:	; 0 bytes @ 0x6
   256                           	global	??_LCDInit
   257  0076                     ??_LCDInit:	; 0 bytes @ 0x6
   258                           	global	??_Increment
   259  0076                     ??_Increment:	; 0 bytes @ 0x6
   260                           	global	??_Message1
   261  0076                     ??_Message1:	; 0 bytes @ 0x6
   262  0076                     	ds	2
   263                           	global	??_main
   264  0078                     ??_main:	; 0 bytes @ 0x8
   265  0078                     	ds	3
   266 ;;Data sizes: Strings 0, constant 0, data 0, bss 35, persistent 0 stack 0
   267 ;;Auto spaces:   Size  Autos    Used
   268 ;; COMMON          14     11      14
   269 ;; BANK0           80      0      32
   270 ;; BANK1           80      0       0
   271 ;; BANK2           80      0       0
   272                           
   273 ;;
   274 ;; Pointer list with targets:
   275                           
   276                           
   277                           
   278 ;;
   279 ;; Critical Paths under _main in COMMON
   280 ;;
   281 ;;   _main->_LCDInit
   282 ;;   _main->_Increment
   283 ;;   _Increment->_LCDWrite
   284 ;;   _Message1->_LCDWrite
   285 ;;   _Message2->_LCDWrite
   286 ;;   _Sbros->_buzz2
   287 ;;   _LCDInit->_LCDWrite
   288 ;;
   289 ;; Critical Paths under _main in BANK0
   290 ;;
   291 ;;   None.
   292 ;;
   293 ;; Critical Paths under _main in BANK1
   294 ;;
   295 ;;   None.
   296 ;;
   297 ;; Critical Paths under _main in BANK2
   298 ;;
   299 ;;   None.
   300                           
   301 ;;
   302 ;;Main: autosize = 0, tempsize = 3, incstack = 0, save=0
   303 ;;
   304                           
   305 ;;
   306 ;;Call Graph Tables:
   307 ;;
   308 ;; ---------------------------------------------------------------------------------
   309 ;; (Depth) Function   	        Calls       Base Space   Used Autos Params    Refs
   310 ;; ---------------------------------------------------------------------------------
   311 ;; (0) _main                                                 3     3      0     660
   312 ;;                                              8 COMMON     3     3      0
   313 ;;                            _LCDInit
   314 ;;                           _Message1
   315 ;;                              _Sbros
   316 ;;                           _LCDWrite
   317 ;;                              _buzz1
   318 ;;                          _Increment
   319 ;; ---------------------------------------------------------------------------------
   320 ;; (1) _Increment                                            2     2      0     264
   321 ;;                                              6 COMMON     2     2      0
   322 ;;                              _buzz1
   323 ;;                           _LCDWrite
   324 ;;                           _Message2
   325 ;; ---------------------------------------------------------------------------------
   326 ;; (1) _Message1                                             0     0      0     132
   327 ;;                           _LCDWrite
   328 ;; ---------------------------------------------------------------------------------
   329 ;; (2) _Message2                                             0     0      0     132
   330 ;;                           _LCDWrite
   331 ;; ---------------------------------------------------------------------------------
   332 ;; (1) _Sbros                                                0     0      0       0
   333 ;;                              _buzz2
   334 ;; ---------------------------------------------------------------------------------
   335 ;; (1) _LCDInit                                              2     2      0     132
   336 ;;                                              6 COMMON     2     2      0
   337 ;;                           _LCDWrite
   338 ;; ---------------------------------------------------------------------------------
   339 ;; (2) _buzz1                                                2     2      0       0
   340 ;;                                              0 COMMON     2     2      0
   341 ;; ---------------------------------------------------------------------------------
   342 ;; (2) _buzz2                                                2     2      0       0
   343 ;;                                              0 COMMON     2     2      0
   344 ;; ---------------------------------------------------------------------------------
   345 ;; (3) _LCDWrite                                             6     2      4     132
   346 ;;                                              0 COMMON     6     2      4
   347 ;; ---------------------------------------------------------------------------------
   348 ;; Estimated maximum stack depth 3
   349 ;; ---------------------------------------------------------------------------------
   350                           
   351 ;; Call Graph Graphs:
   352                           
   353 ;; _main (ROOT)
   354 ;;   _LCDInit
   355 ;;     _LCDWrite
   356 ;;   _Message1
   357 ;;     _LCDWrite
   358 ;;   _Sbros
   359 ;;     _buzz2
   360 ;;   _LCDWrite
   361 ;;   _buzz1
   362 ;;   _Increment
   363 ;;     _buzz1
   364 ;;     _LCDWrite
   365 ;;     _Message2
   366 ;;       _LCDWrite
   367 ;;
   368                           
   369 ;; Address spaces:
   370                           
   371 ;;Name               Size   Autos  Total    Cost      Usage
   372 ;;BITCOMMON            E      0       0       0        0.0%
   373 ;;EEDATA             100      0       0       0        0.0%
   374 ;;NULL                 0      0       0       0        0.0%
   375 ;;CODE                 0      0       0       0        0.0%
   376 ;;COMMON               E      B       E       1      100.0%
   377 ;;BITSFR0              0      0       0       1        0.0%
   378 ;;SFR0                 0      0       0       1        0.0%
   379 ;;BITSFR1              0      0       0       2        0.0%
   380 ;;SFR1                 0      0       0       2        0.0%
   381 ;;STACK                0      0       3       2        0.0%
   382 ;;BANK0               50      0      20       3       40.0%
   383 ;;BITBANK1            50      0       0       4        0.0%
   384 ;;BITSFR3              0      0       0       4        0.0%
   385 ;;SFR3                 0      0       0       4        0.0%
   386 ;;BANK1               50      0       0       5        0.0%
   387 ;;BITSFR2              0      0       0       5        0.0%
   388 ;;SFR2                 0      0       0       5        0.0%
   389 ;;BITBANK2            50      0       0       6        0.0%
   390 ;;BANK2               50      0       0       7        0.0%
   391 ;;ABS                  0      0      2E       8        0.0%
   392 ;;BITBANK0            50      0       0       9        0.0%
   393 ;;DATA                 0      0      31      10        0.0%
   394                           
   395                           	global	_main
   396                           psect	maintext,global,class=CODE,delta=2
   397                           global __pmaintext
   398  029A                     __pmaintext:
   399                           
   400 ;; *************** function _main *****************
   401 ;; Defined at:
   402 ;;		line 228 in file "C:\Users\gf\Desktop\photoresist\project\proga.c"
   403 ;; Parameters:    Size  Location     Type
   404 ;;		None
   405 ;; Auto vars:     Size  Location     Type
   406 ;;		None
   407 ;; Return value:  Size  Location     Type
   408 ;;                  2  988[COMMON] int 
   409 ;; Registers used:
   410 ;;		wreg, fsr0l, fsr0h, status,2, status,0, btemp+1, pclath, cstack
   411 ;; Tracked objects:
   412 ;;		On entry : 17F/0
   413 ;;		On exit  : 0/0
   414 ;;		Unchanged: 0/0
   415 ;; Data sizes:     COMMON   BANK0   BANK1   BANK2
   416 ;;      Params:         0       0       0       0
   417 ;;      Locals:         0       0       0       0
   418 ;;      Temps:          3       0       0       0
   419 ;;      Totals:         3       0       0       0
   420 ;;Total ram usage:        3 bytes
   421 ;; Hardware stack levels required when called:    3
   422 ;; This function calls:
   423 ;;		_LCDInit
   424 ;;		_Message1
   425 ;;		_Sbros
   426 ;;		_LCDWrite
   427 ;;		_buzz1
   428 ;;		_Increment
   429 ;; This function is called by:
   430 ;;		Startup code after reset
   431 ;; This function uses a non-reentrant model
   432 ;;
   433                           psect	maintext
   434                           	file	"C:\Users\gf\Desktop\photoresist\project\proga.c"
   435                           	line	228
   436                           	global	__size_of_main
   437  0566                     	__size_of_main	equ	__end_of_main-_main
   438                           	
   439  029A                     _main:	
   440                           	opt	stack 5
   441                           ; Regs used in _main: [wreg-fsr0h+status,2+status,0+btemp+1+pclath+cstack]
   442                           	line	230
   443                           	
   444  029A                     l4029:	
   445                           ;proga.c: 230: ANSEL = 0;
   446  029A  1283               	bcf	status, 5	;RP0=0, select bank2
   447  029B  1703               	bsf	status, 6	;RP1=1, select bank2
   448  029C  019E               	clrf	(286)^0100h	;volatile
   449                           	line	231
   450                           ;proga.c: 231: TRISC = 0b00000000;
   451  029D  1683               	bsf	status, 5	;RP0=1, select bank1
   452  029E  1303               	bcf	status, 6	;RP1=0, select bank1
   453  029F  0187               	clrf	(135)^080h	;volatile
   454                           	line	232
   455                           ;proga.c: 232: PORTC = 0b00000000;
   456  02A0  1283               	bcf	status, 5	;RP0=0, select bank0
   457  02A1  1303               	bcf	status, 6	;RP1=0, select bank0
   458  02A2  0187               	clrf	(7)	;volatile
   459                           	line	234
   460                           	
   461  02A3                     l4031:	
   462                           ;proga.c: 234: LCDInit();
   463  02A3  118A  2239  118A   	fcall	_LCDInit
   464                           	line	236
   465                           	
   466  02A6                     l4033:	
   467                           ;proga.c: 236: Message1();
   468  02A6  118A  20A9  118A   	fcall	_Message1
   469                           	line	238
   470                           ;proga.c: 238: TRISB=0b00000000;
   471  02A9  1683               	bsf	status, 5	;RP0=1, select bank1
   472  02AA  1303               	bcf	status, 6	;RP1=0, select bank1
   473  02AB  0186               	clrf	(134)^080h	;volatile
   474                           	line	239
   475                           ;proga.c: 239: PORTB=0b00000000;
   476  02AC  1283               	bcf	status, 5	;RP0=0, select bank0
   477  02AD  1303               	bcf	status, 6	;RP1=0, select bank0
   478  02AE  0186               	clrf	(6)	;volatile
   479                           	line	243
   480                           ;proga.c: 243: start:;
   481                           	
   482  02AF                     l989:	
   483                           	line	244
   484                           ;proga.c: 244: x=0;
   485  02AF  01FB               	clrf	(_x)
   486  02B0  01FC               	clrf	(_x+1)
   487                           	line	245
   488                           ;proga.c: 245: y=0;
   489  02B1  1283               	bcf	status, 5	;RP0=0, select bank0
   490  02B2  1303               	bcf	status, 6	;RP1=0, select bank0
   491  02B3  01BA               	clrf	(_y)
   492  02B4  01BB               	clrf	(_y+1)
   493                           	line	246
   494                           	
   495  02B5                     l4035:	
   496                           ;proga.c: 246: Sbros();
   497  02B5  118A  2091  118A   	fcall	_Sbros
   498  02B8  2AB9               	goto	l4037
   499                           	line	247
   500                           ;proga.c: 247: for(;;){
   501                           	
   502  02B9                     l990:	
   503                           	line	249
   504                           	
   505  02B9                     l4037:	
   506                           ;proga.c: 249: _delay((unsigned long)((5)*(4000000/4000.0)));
   507                           	opt asmopt_off
   508  02B9  3007               movlw	7
   509  02BA  00F9               movwf	((??_main+0)+0+1),f
   510  02BB  307D               	movlw	125
   511  02BC  00F8               movwf	((??_main+0)+0),f
   512  02BD                     u4167:
   513  02BD  0BF8               	decfsz	((??_main+0)+0),f
   514  02BE  2ABD               	goto	u4167
   515  02BF  0BF9               	decfsz	((??_main+0)+0+1),f
   516  02C0  2ABD               	goto	u4167
   517                           opt asmopt_on
   518                           
   519                           	line	251
   520                           	
   521  02C1                     l4039:	
   522                           ;proga.c: 251: TRISA=0b11111110;
   523  02C1  30FE               	movlw	(0FEh)
   524  02C2  1683               	bsf	status, 5	;RP0=1, select bank1
   525  02C3  1303               	bcf	status, 6	;RP1=0, select bank1
   526  02C4  0085               	movwf	(133)^080h	;volatile
   527                           	line	252
   528                           	
   529  02C5                     l4041:	
   530                           ;proga.c: 252: TRISB=0b00000000;
   531  02C5  0186               	clrf	(134)^080h	;volatile
   532                           	line	253
   533                           	
   534  02C6                     l4043:	
   535                           ;proga.c: 253: PORTA=0b00000001;
   536  02C6  3001               	movlw	(01h)
   537  02C7  1283               	bcf	status, 5	;RP0=0, select bank0
   538  02C8  1303               	bcf	status, 6	;RP1=0, select bank0
   539  02C9  0085               	movwf	(5)	;volatile
   540                           	line	255
   541                           	
   542  02CA                     l4045:	
   543                           ;proga.c: 255: _delay((unsigned long)((5)*(4000000/4000.0)));
   544                           	opt asmopt_off
   545  02CA  3007               movlw	7
   546  02CB  00F9               movwf	((??_main+0)+0+1),f
   547  02CC  307D               	movlw	125
   548  02CD  00F8               movwf	((??_main+0)+0),f
   549  02CE                     u4177:
   550  02CE  0BF8               	decfsz	((??_main+0)+0),f
   551  02CF  2ACE               	goto	u4177
   552  02D0  0BF9               	decfsz	((??_main+0)+0+1),f
   553  02D1  2ACE               	goto	u4177
   554                           opt asmopt_on
   555                           
   556                           	line	256
   557                           	
   558  02D2                     l4047:	
   559                           ;proga.c: 256: if (RA1==1){
   560  02D2  1283               	bcf	status, 5	;RP0=0, select bank0
   561  02D3  1303               	bcf	status, 6	;RP1=0, select bank0
   562  02D4  1C85               	btfss	(41/8),(41)&7
   563  02D5  2AD7               	goto	u3531
   564  02D6  2AD8               	goto	u3530
   565  02D7                     u3531:
   566  02D7  2B22               	goto	l991
   567  02D8                     u3530:
   568                           	line	257
   569                           	
   570  02D8                     l4049:	
   571                           ;proga.c: 257: n=0;
   572  02D8  01B4               	clrf	(_n)
   573  02D9  01B5               	clrf	(_n+1)
   574                           	line	258
   575                           ;proga.c: 258: while (RA1==1){
   576  02DA  2B1D               	goto	l4063
   577                           	
   578  02DB                     l993:	
   579                           	line	259
   580                           	
   581  02DB                     l4051:	
   582                           ;proga.c: 259: if (n==100)
   583  02DB  3064               	movlw	064h
   584  02DC  0634               	xorwf	(_n),w
   585  02DD  0435               	iorwf	(_n+1),w
   586  02DE  1D03               	skipz
   587  02DF  2AE1               	goto	u3541
   588  02E0  2AE2               	goto	u3540
   589  02E1                     u3541:
   590  02E1  2B0B               	goto	l4061
   591  02E2                     u3540:
   592                           	line	261
   593                           	
   594  02E2                     l4053:	
   595                           ;proga.c: 260: {
   596                           ;proga.c: 261: if (x<5){
   597  02E2  087C               	movf	(_x+1),w
   598  02E3  3A80               	xorlw	80h
   599  02E4  00FF               	movwf	btemp+1
   600  02E5  3080               	movlw	(high(05h))^80h
   601  02E6  027F               	subwf	btemp+1,w
   602  02E7  1D03               	skipz
   603  02E8  2AEB               	goto	u3555
   604  02E9  3005               	movlw	low(05h)
   605  02EA  027B               	subwf	(_x),w
   606  02EB                     u3555:
   607                           
   608  02EB  1803               	skipnc
   609  02EC  2AEE               	goto	u3551
   610  02ED  2AEF               	goto	u3550
   611  02EE                     u3551:
   612  02EE  2FD1               	goto	l4347
   613  02EF                     u3550:
   614                           	line	262
   615                           	
   616  02EF                     l4055:	
   617                           ;proga.c: 262: LCDWrite(50, 1);
   618  02EF  3032               	movlw	low(032h)
   619  02F0  00F0               	movwf	(?_LCDWrite)
   620  02F1  3000               	movlw	high(032h)
   621  02F2  00F1               	movwf	((?_LCDWrite))+1
   622  02F3  3001               	movlw	low(01h)
   623  02F4  00F2               	movwf	0+(?_LCDWrite)+02h
   624  02F5  3000               	movlw	high(01h)
   625  02F6  00F3               	movwf	(0+(?_LCDWrite)+02h)+1
   626  02F7  118A  2132  118A   	fcall	_LCDWrite
   627                           	line	263
   628                           	
   629  02FA                     l4057:	
   630                           ;proga.c: 263: x++;
   631  02FA  3001               	movlw	low(01h)
   632  02FB  07FB               	addwf	(_x),f
   633  02FC  1803               	skipnc
   634  02FD  0AFC               	incf	(_x+1),f
   635  02FE  3000               	movlw	high(01h)
   636  02FF  07FC               	addwf	(_x+1),f
   637                           	line	264
   638                           	
   639  0300                     l4059:	
   640                           ;proga.c: 264: mas[x]=50;
   641  0300  3032               	movlw	(032h)
   642  0301  00F8               	movwf	(??_main+0)+0
   643  0302  087B               	movf	(_x),w
   644  0303  3E20               	addlw	_mas&0ffh
   645  0304  0084               	movwf	fsr0
   646  0305  0878               	movf	(??_main+0)+0,w
   647  0306  1383               	bcf	status, 7	;select IRP bank0
   648  0307  0080               	movwf	indf
   649                           	line	265
   650                           ;proga.c: 265: }
   651  0308  2B0B               	goto	l4061
   652                           	line	266
   653                           	
   654  0309                     l995:	
   655                           ;proga.c: 266: else goto end;
   656  0309  2FD1               	goto	l4347
   657                           	
   658  030A                     l996:	
   659  030A  2B0B               	goto	l4061
   660                           	line	267
   661                           	
   662  030B                     l994:	
   663                           	line	268
   664                           	
   665  030B                     l4061:	
   666                           ;proga.c: 267: }
   667                           ;proga.c: 268: _delay((unsigned long)((2)*(4000000/4000.0)));
   668                           	opt asmopt_off
   669  030B  3003               movlw	3
   670  030C  00F9               movwf	((??_main+0)+0+1),f
   671  030D  3097               	movlw	151
   672  030E  00F8               movwf	((??_main+0)+0),f
   673  030F                     u4187:
   674  030F  0BF8               	decfsz	((??_main+0)+0),f
   675  0310  2B0F               	goto	u4187
   676  0311  0BF9               	decfsz	((??_main+0)+0+1),f
   677  0312  2B0F               	goto	u4187
   678  0313  2B14               	nop2
   679                           opt asmopt_on
   680                           
   681                           	line	269
   682                           ;proga.c: 269: n++;
   683  0314  3001               	movlw	low(01h)
   684  0315  1283               	bcf	status, 5	;RP0=0, select bank0
   685  0316  1303               	bcf	status, 6	;RP1=0, select bank0
   686  0317  07B4               	addwf	(_n),f
   687  0318  1803               	skipnc
   688  0319  0AB5               	incf	(_n+1),f
   689  031A  3000               	movlw	high(01h)
   690  031B  07B5               	addwf	(_n+1),f
   691  031C  2B1D               	goto	l4063
   692                           	line	270
   693                           	
   694  031D                     l992:	
   695                           	line	258
   696                           	
   697  031D                     l4063:	
   698  031D  1885               	btfsc	(41/8),(41)&7
   699  031E  2B20               	goto	u3561
   700  031F  2B21               	goto	u3560
   701  0320                     u3561:
   702  0320  2ADB               	goto	l4051
   703  0321                     u3560:
   704  0321  2B22               	goto	l991
   705                           	
   706  0322                     l998:	
   707                           	line	270
   708                           	
   709  0322                     l991:	
   710                           	line	272
   711                           ;proga.c: 270: }}
   712                           ;proga.c: 272: if (RA3==1){
   713  0322  1D85               	btfss	(43/8),(43)&7
   714  0323  2B25               	goto	u3571
   715  0324  2B26               	goto	u3570
   716  0325                     u3571:
   717  0325  2B70               	goto	l999
   718  0326                     u3570:
   719                           	line	273
   720                           	
   721  0326                     l4065:	
   722                           ;proga.c: 273: n=0;
   723  0326  01B4               	clrf	(_n)
   724  0327  01B5               	clrf	(_n+1)
   725                           	line	274
   726                           ;proga.c: 274: while (RA3==1){
   727  0328  2B6B               	goto	l4079
   728                           	
   729  0329                     l1001:	
   730                           	line	275
   731                           	
   732  0329                     l4067:	
   733                           ;proga.c: 275: if (n==100)
   734  0329  3064               	movlw	064h
   735  032A  0634               	xorwf	(_n),w
   736  032B  0435               	iorwf	(_n+1),w
   737  032C  1D03               	skipz
   738  032D  2B2F               	goto	u3581
   739  032E  2B30               	goto	u3580
   740  032F                     u3581:
   741  032F  2B59               	goto	l4077
   742  0330                     u3580:
   743                           	line	277
   744                           	
   745  0330                     l4069:	
   746                           ;proga.c: 276: {
   747                           ;proga.c: 277: if (x<5){
   748  0330  087C               	movf	(_x+1),w
   749  0331  3A80               	xorlw	80h
   750  0332  00FF               	movwf	btemp+1
   751  0333  3080               	movlw	(high(05h))^80h
   752  0334  027F               	subwf	btemp+1,w
   753  0335  1D03               	skipz
   754  0336  2B39               	goto	u3595
   755  0337  3005               	movlw	low(05h)
   756  0338  027B               	subwf	(_x),w
   757  0339                     u3595:
   758                           
   759  0339  1803               	skipnc
   760  033A  2B3C               	goto	u3591
   761  033B  2B3D               	goto	u3590
   762  033C                     u3591:
   763  033C  2FD1               	goto	l4347
   764  033D                     u3590:
   765                           	line	278
   766                           	
   767  033D                     l4071:	
   768                           ;proga.c: 278: LCDWrite(48, 1);
   769  033D  3030               	movlw	low(030h)
   770  033E  00F0               	movwf	(?_LCDWrite)
   771  033F  3000               	movlw	high(030h)
   772  0340  00F1               	movwf	((?_LCDWrite))+1
   773  0341  3001               	movlw	low(01h)
   774  0342  00F2               	movwf	0+(?_LCDWrite)+02h
   775  0343  3000               	movlw	high(01h)
   776  0344  00F3               	movwf	(0+(?_LCDWrite)+02h)+1
   777  0345  118A  2132  118A   	fcall	_LCDWrite
   778                           	line	279
   779                           	
   780  0348                     l4073:	
   781                           ;proga.c: 279: x++;
   782  0348  3001               	movlw	low(01h)
   783  0349  07FB               	addwf	(_x),f
   784  034A  1803               	skipnc
   785  034B  0AFC               	incf	(_x+1),f
   786  034C  3000               	movlw	high(01h)
   787  034D  07FC               	addwf	(_x+1),f
   788                           	line	280
   789                           	
   790  034E                     l4075:	
   791                           ;proga.c: 280: mas[x]=48;
   792  034E  3030               	movlw	(030h)
   793  034F  00F8               	movwf	(??_main+0)+0
   794  0350  087B               	movf	(_x),w
   795  0351  3E20               	addlw	_mas&0ffh
   796  0352  0084               	movwf	fsr0
   797  0353  0878               	movf	(??_main+0)+0,w
   798  0354  1383               	bcf	status, 7	;select IRP bank0
   799  0355  0080               	movwf	indf
   800                           	line	281
   801                           ;proga.c: 281: }
   802  0356  2B59               	goto	l4077
   803                           	line	282
   804                           	
   805  0357                     l1003:	
   806                           ;proga.c: 282: else goto end;
   807  0357  2FD1               	goto	l4347
   808                           	
   809  0358                     l1004:	
   810  0358  2B59               	goto	l4077
   811                           	line	283
   812                           	
   813  0359                     l1002:	
   814                           	line	284
   815                           	
   816  0359                     l4077:	
   817                           ;proga.c: 283: }
   818                           ;proga.c: 284: _delay((unsigned long)((2)*(4000000/4000.0)));
   819                           	opt asmopt_off
   820  0359  3003               movlw	3
   821  035A  00F9               movwf	((??_main+0)+0+1),f
   822  035B  3097               	movlw	151
   823  035C  00F8               movwf	((??_main+0)+0),f
   824  035D                     u4197:
   825  035D  0BF8               	decfsz	((??_main+0)+0),f
   826  035E  2B5D               	goto	u4197
   827  035F  0BF9               	decfsz	((??_main+0)+0+1),f
   828  0360  2B5D               	goto	u4197
   829  0361  2B62               	nop2
   830                           opt asmopt_on
   831                           
   832                           	line	285
   833                           ;proga.c: 285: n++;
   834  0362  3001               	movlw	low(01h)
   835  0363  1283               	bcf	status, 5	;RP0=0, select bank0
   836  0364  1303               	bcf	status, 6	;RP1=0, select bank0
   837  0365  07B4               	addwf	(_n),f
   838  0366  1803               	skipnc
   839  0367  0AB5               	incf	(_n+1),f
   840  0368  3000               	movlw	high(01h)
   841  0369  07B5               	addwf	(_n+1),f
   842  036A  2B6B               	goto	l4079
   843                           	line	286
   844                           	
   845  036B                     l1000:	
   846                           	line	274
   847                           	
   848  036B                     l4079:	
   849  036B  1985               	btfsc	(43/8),(43)&7
   850  036C  2B6E               	goto	u3601
   851  036D  2B6F               	goto	u3600
   852  036E                     u3601:
   853  036E  2B29               	goto	l4067
   854  036F                     u3600:
   855  036F  2B70               	goto	l999
   856                           	
   857  0370                     l1005:	
   858                           	line	286
   859                           	
   860  0370                     l999:	
   861                           	line	288
   862                           ;proga.c: 286: }}
   863                           ;proga.c: 288: if (RA5==1){
   864  0370  1E85               	btfss	(45/8),(45)&7
   865  0371  2B73               	goto	u3611
   866  0372  2B74               	goto	u3610
   867  0373                     u3611:
   868  0373  2BD0               	goto	l4105
   869  0374                     u3610:
   870                           	line	289
   871                           	
   872  0374                     l4081:	
   873                           ;proga.c: 289: n=0;
   874  0374  01B4               	clrf	(_n)
   875  0375  01B5               	clrf	(_n+1)
   876                           	line	290
   877                           ;proga.c: 290: while (RA5==1){
   878  0376  2BCA               	goto	l4103
   879                           	
   880  0377                     l1008:	
   881                           	line	291
   882                           	
   883  0377                     l4083:	
   884                           ;proga.c: 291: if (n==100)
   885  0377  3064               	movlw	064h
   886  0378  0634               	xorwf	(_n),w
   887  0379  0435               	iorwf	(_n+1),w
   888  037A  1D03               	skipz
   889  037B  2B7D               	goto	u3621
   890  037C  2B7E               	goto	u3620
   891  037D                     u3621:
   892  037D  2BB8               	goto	l4101
   893  037E                     u3620:
   894                           	line	293
   895                           	
   896  037E                     l4085:	
   897                           ;proga.c: 292: {
   898                           ;proga.c: 293: if (x==3) goto end;
   899  037E  3003               	movlw	03h
   900  037F  067B               	xorwf	(_x),w
   901  0380  047C               	iorwf	(_x+1),w
   902  0381  1D03               	skipz
   903  0382  2B84               	goto	u3631
   904  0383  2B85               	goto	u3630
   905  0384                     u3631:
   906  0384  2B87               	goto	l4089
   907  0385                     u3630:
   908  0385  2FD1               	goto	l4347
   909                           	
   910  0386                     l4087:	
   911  0386  2FD1               	goto	l4347
   912                           	
   913  0387                     l1010:	
   914                           	line	294
   915                           	
   916  0387                     l4089:	
   917                           ;proga.c: 294: if (x==0) goto end;
   918  0387  087C               	movf	((_x+1)),w
   919  0388  047B               	iorwf	((_x)),w
   920  0389  1D03               	skipz
   921  038A  2B8C               	goto	u3641
   922  038B  2B8D               	goto	u3640
   923  038C                     u3641:
   924  038C  2B8F               	goto	l4093
   925  038D                     u3640:
   926  038D  2FD1               	goto	l4347
   927                           	
   928  038E                     l4091:	
   929  038E  2FD1               	goto	l4347
   930                           	
   931  038F                     l1011:	
   932                           	line	295
   933                           	
   934  038F                     l4093:	
   935                           ;proga.c: 295: if (x<5){
   936  038F  087C               	movf	(_x+1),w
   937  0390  3A80               	xorlw	80h
   938  0391  00FF               	movwf	btemp+1
   939  0392  3080               	movlw	(high(05h))^80h
   940  0393  027F               	subwf	btemp+1,w
   941  0394  1D03               	skipz
   942  0395  2B98               	goto	u3655
   943  0396  3005               	movlw	low(05h)
   944  0397  027B               	subwf	(_x),w
   945  0398                     u3655:
   946                           
   947  0398  1803               	skipnc
   948  0399  2B9B               	goto	u3651
   949  039A  2B9C               	goto	u3650
   950  039B                     u3651:
   951  039B  2FD1               	goto	l4347
   952  039C                     u3650:
   953                           	line	296
   954                           	
   955  039C                     l4095:	
   956                           ;proga.c: 296: LCDWrite(56, 1);
   957  039C  3038               	movlw	low(038h)
   958  039D  00F0               	movwf	(?_LCDWrite)
   959  039E  3000               	movlw	high(038h)
   960  039F  00F1               	movwf	((?_LCDWrite))+1
   961  03A0  3001               	movlw	low(01h)
   962  03A1  00F2               	movwf	0+(?_LCDWrite)+02h
   963  03A2  3000               	movlw	high(01h)
   964  03A3  00F3               	movwf	(0+(?_LCDWrite)+02h)+1
   965  03A4  118A  2132  118A   	fcall	_LCDWrite
   966                           	line	297
   967                           	
   968  03A7                     l4097:	
   969                           ;proga.c: 297: x++;
   970  03A7  3001               	movlw	low(01h)
   971  03A8  07FB               	addwf	(_x),f
   972  03A9  1803               	skipnc
   973  03AA  0AFC               	incf	(_x+1),f
   974  03AB  3000               	movlw	high(01h)
   975  03AC  07FC               	addwf	(_x+1),f
   976                           	line	298
   977                           	
   978  03AD                     l4099:	
   979                           ;proga.c: 298: mas[x]=56;
   980  03AD  3038               	movlw	(038h)
   981  03AE  00F8               	movwf	(??_main+0)+0
   982  03AF  087B               	movf	(_x),w
   983  03B0  3E20               	addlw	_mas&0ffh
   984  03B1  0084               	movwf	fsr0
   985  03B2  0878               	movf	(??_main+0)+0,w
   986  03B3  1383               	bcf	status, 7	;select IRP bank0
   987  03B4  0080               	movwf	indf
   988                           	line	299
   989                           ;proga.c: 299: }
   990  03B5  2BB8               	goto	l4101
   991                           	line	300
   992                           	
   993  03B6                     l1012:	
   994                           ;proga.c: 300: else goto end;
   995  03B6  2FD1               	goto	l4347
   996                           	
   997  03B7                     l1013:	
   998  03B7  2BB8               	goto	l4101
   999                           	line	301
  1000                           	
  1001  03B8                     l1009:	
  1002                           	line	302
  1003                           	
  1004  03B8                     l4101:	
  1005                           ;proga.c: 301: }
  1006                           ;proga.c: 302: _delay((unsigned long)((2)*(4000000/4000.0)));
  1007                           	opt asmopt_off
  1008  03B8  3003               movlw	3
  1009  03B9  00F9               movwf	((??_main+0)+0+1),f
  1010  03BA  3097               	movlw	151
  1011  03BB  00F8               movwf	((??_main+0)+0),f
  1012  03BC                     u4207:
  1013  03BC  0BF8               	decfsz	((??_main+0)+0),f
  1014  03BD  2BBC               	goto	u4207
  1015  03BE  0BF9               	decfsz	((??_main+0)+0+1),f
  1016  03BF  2BBC               	goto	u4207
  1017  03C0  2BC1               	nop2
  1018                           opt asmopt_on
  1019                           
  1020                           	line	303
  1021                           ;proga.c: 303: n++;
  1022  03C1  3001               	movlw	low(01h)
  1023  03C2  1283               	bcf	status, 5	;RP0=0, select bank0
  1024  03C3  1303               	bcf	status, 6	;RP1=0, select bank0
  1025  03C4  07B4               	addwf	(_n),f
  1026  03C5  1803               	skipnc
  1027  03C6  0AB5               	incf	(_n+1),f
  1028  03C7  3000               	movlw	high(01h)
  1029  03C8  07B5               	addwf	(_n+1),f
  1030  03C9  2BCA               	goto	l4103
  1031                           	line	304
  1032                           	
  1033  03CA                     l1007:	
  1034                           	line	290
  1035                           	
  1036  03CA                     l4103:	
  1037  03CA  1A85               	btfsc	(45/8),(45)&7
  1038  03CB  2BCD               	goto	u3661
  1039  03CC  2BCE               	goto	u3660
  1040  03CD                     u3661:
  1041  03CD  2B77               	goto	l4083
  1042  03CE                     u3660:
  1043  03CE  2BD0               	goto	l4105
  1044                           	
  1045  03CF                     l1014:	
  1046  03CF  2BD0               	goto	l4105
  1047                           	line	304
  1048                           	
  1049  03D0                     l1006:	
  1050                           	line	306
  1051                           	
  1052  03D0                     l4105:	
  1053                           ;proga.c: 304: }}
  1054                           ;proga.c: 306: _delay((unsigned long)((5)*(4000000/4000.0)));
  1055                           	opt asmopt_off
  1056  03D0  3007               movlw	7
  1057  03D1  00F9               movwf	((??_main+0)+0+1),f
  1058  03D2  307D               	movlw	125
  1059  03D3  00F8               movwf	((??_main+0)+0),f
  1060  03D4                     u4217:
  1061  03D4  0BF8               	decfsz	((??_main+0)+0),f
  1062  03D5  2BD4               	goto	u4217
  1063  03D6  0BF9               	decfsz	((??_main+0)+0+1),f
  1064  03D7  2BD4               	goto	u4217
  1065                           opt asmopt_on
  1066                           
  1067                           	line	308
  1068                           ;proga.c: 308: TRISA=0b11101111;
  1069  03D8  30EF               	movlw	(0EFh)
  1070  03D9  1683               	bsf	status, 5	;RP0=1, select bank1
  1071  03DA  1303               	bcf	status, 6	;RP1=0, select bank1
  1072  03DB  0085               	movwf	(133)^080h	;volatile
  1073                           	line	309
  1074                           	
  1075  03DC                     l4107:	
  1076                           ;proga.c: 309: TRISB=0b00000000;
  1077  03DC  0186               	clrf	(134)^080h	;volatile
  1078                           	line	310
  1079                           	
  1080  03DD                     l4109:	
  1081                           ;proga.c: 310: PORTA=0b00010000;
  1082  03DD  3010               	movlw	(010h)
  1083  03DE  1283               	bcf	status, 5	;RP0=0, select bank0
  1084  03DF  1303               	bcf	status, 6	;RP1=0, select bank0
  1085  03E0  0085               	movwf	(5)	;volatile
  1086                           	line	312
  1087                           	
  1088  03E1                     l4111:	
  1089                           ;proga.c: 312: _delay((unsigned long)((5)*(4000000/4000.0)));
  1090                           	opt asmopt_off
  1091  03E1  3007               movlw	7
  1092  03E2  00F9               movwf	((??_main+0)+0+1),f
  1093  03E3  307D               	movlw	125
  1094  03E4  00F8               movwf	((??_main+0)+0),f
  1095  03E5                     u4227:
  1096  03E5  0BF8               	decfsz	((??_main+0)+0),f
  1097  03E6  2BE5               	goto	u4227
  1098  03E7  0BF9               	decfsz	((??_main+0)+0+1),f
  1099  03E8  2BE5               	goto	u4227
  1100                           opt asmopt_on
  1101                           
  1102                           	line	314
  1103                           	
  1104  03E9                     l4113:	
  1105                           ;proga.c: 314: if (RA1==1){
  1106  03E9  1283               	bcf	status, 5	;RP0=0, select bank0
  1107  03EA  1303               	bcf	status, 6	;RP1=0, select bank0
  1108  03EB  1C85               	btfss	(41/8),(41)&7
  1109  03EC  2BEE               	goto	u3671
  1110  03ED  2BEF               	goto	u3670
  1111  03EE                     u3671:
  1112  03EE  2C39               	goto	l1015
  1113  03EF                     u3670:
  1114                           	line	315
  1115                           	
  1116  03EF                     l4115:	
  1117                           ;proga.c: 315: n=0;
  1118  03EF  01B4               	clrf	(_n)
  1119  03F0  01B5               	clrf	(_n+1)
  1120                           	line	316
  1121                           ;proga.c: 316: while (RA1==1){
  1122  03F1  2C34               	goto	l4129
  1123                           	
  1124  03F2                     l1017:	
  1125                           	line	317
  1126                           	
  1127  03F2                     l4117:	
  1128                           ;proga.c: 317: if (n==100)
  1129  03F2  3064               	movlw	064h
  1130  03F3  0634               	xorwf	(_n),w
  1131  03F4  0435               	iorwf	(_n+1),w
  1132  03F5  1D03               	skipz
  1133  03F6  2BF8               	goto	u3681
  1134  03F7  2BF9               	goto	u3680
  1135  03F8                     u3681:
  1136  03F8  2C22               	goto	l4127
  1137  03F9                     u3680:
  1138                           	line	319
  1139                           	
  1140  03F9                     l4119:	
  1141                           ;proga.c: 318: {
  1142                           ;proga.c: 319: if (x<5){
  1143  03F9  087C               	movf	(_x+1),w
  1144  03FA  3A80               	xorlw	80h
  1145  03FB  00FF               	movwf	btemp+1
  1146  03FC  3080               	movlw	(high(05h))^80h
  1147  03FD  027F               	subwf	btemp+1,w
  1148  03FE  1D03               	skipz
  1149  03FF  2C02               	goto	u3695
  1150  0400  3005               	movlw	low(05h)
  1151  0401  027B               	subwf	(_x),w
  1152  0402                     u3695:
  1153                           
  1154  0402  1803               	skipnc
  1155  0403  2C05               	goto	u3691
  1156  0404  2C06               	goto	u3690
  1157  0405                     u3691:
  1158  0405  2FD1               	goto	l4347
  1159  0406                     u3690:
  1160                           	line	320
  1161                           	
  1162  0406                     l4121:	
  1163                           ;proga.c: 320: LCDWrite(51, 1);
  1164  0406  3033               	movlw	low(033h)
  1165  0407  00F0               	movwf	(?_LCDWrite)
  1166  0408  3000               	movlw	high(033h)
  1167  0409  00F1               	movwf	((?_LCDWrite))+1
  1168  040A  3001               	movlw	low(01h)
  1169  040B  00F2               	movwf	0+(?_LCDWrite)+02h
  1170  040C  3000               	movlw	high(01h)
  1171  040D  00F3               	movwf	(0+(?_LCDWrite)+02h)+1
  1172  040E  118A  2132  118A   	fcall	_LCDWrite
  1173                           	line	321
  1174                           	
  1175  0411                     l4123:	
  1176                           ;proga.c: 321: x++;
  1177  0411  3001               	movlw	low(01h)
  1178  0412  07FB               	addwf	(_x),f
  1179  0413  1803               	skipnc
  1180  0414  0AFC               	incf	(_x+1),f
  1181  0415  3000               	movlw	high(01h)
  1182  0416  07FC               	addwf	(_x+1),f
  1183                           	line	322
  1184                           	
  1185  0417                     l4125:	
  1186                           ;proga.c: 322: mas[x]=51;
  1187  0417  3033               	movlw	(033h)
  1188  0418  00F8               	movwf	(??_main+0)+0
  1189  0419  087B               	movf	(_x),w
  1190  041A  3E20               	addlw	_mas&0ffh
  1191  041B  0084               	movwf	fsr0
  1192  041C  0878               	movf	(??_main+0)+0,w
  1193  041D  1383               	bcf	status, 7	;select IRP bank0
  1194  041E  0080               	movwf	indf
  1195                           	line	323
  1196                           ;proga.c: 323: }
  1197  041F  2C22               	goto	l4127
  1198                           	line	324
  1199                           	
  1200  0420                     l1019:	
  1201                           ;proga.c: 324: else goto end;
  1202  0420  2FD1               	goto	l4347
  1203                           	
  1204  0421                     l1020:	
  1205  0421  2C22               	goto	l4127
  1206                           	line	325
  1207                           	
  1208  0422                     l1018:	
  1209                           	line	326
  1210                           	
  1211  0422                     l4127:	
  1212                           ;proga.c: 325: }
  1213                           ;proga.c: 326: _delay((unsigned long)((2)*(4000000/4000.0)));
  1214                           	opt asmopt_off
  1215  0422  3003               movlw	3
  1216  0423  00F9               movwf	((??_main+0)+0+1),f
  1217  0424  3097               	movlw	151
  1218  0425  00F8               movwf	((??_main+0)+0),f
  1219  0426                     u4237:
  1220  0426  0BF8               	decfsz	((??_main+0)+0),f
  1221  0427  2C26               	goto	u4237
  1222  0428  0BF9               	decfsz	((??_main+0)+0+1),f
  1223  0429  2C26               	goto	u4237
  1224  042A  2C2B               	nop2
  1225                           opt asmopt_on
  1226                           
  1227                           	line	327
  1228                           ;proga.c: 327: n++;
  1229  042B  3001               	movlw	low(01h)
  1230  042C  1283               	bcf	status, 5	;RP0=0, select bank0
  1231  042D  1303               	bcf	status, 6	;RP1=0, select bank0
  1232  042E  07B4               	addwf	(_n),f
  1233  042F  1803               	skipnc
  1234  0430  0AB5               	incf	(_n+1),f
  1235  0431  3000               	movlw	high(01h)
  1236  0432  07B5               	addwf	(_n+1),f
  1237  0433  2C34               	goto	l4129
  1238                           	line	328
  1239                           	
  1240  0434                     l1016:	
  1241                           	line	316
  1242                           	
  1243  0434                     l4129:	
  1244  0434  1885               	btfsc	(41/8),(41)&7
  1245  0435  2C37               	goto	u3701
  1246  0436  2C38               	goto	u3700
  1247  0437                     u3701:
  1248  0437  2BF2               	goto	l4117
  1249  0438                     u3700:
  1250  0438  2C39               	goto	l1015
  1251                           	
  1252  0439                     l1021:	
  1253                           	line	328
  1254                           	
  1255  0439                     l1015:	
  1256                           	line	330
  1257                           ;proga.c: 328: }}
  1258                           ;proga.c: 330: if (RA5==1){
  1259  0439  1E85               	btfss	(45/8),(45)&7
  1260  043A  2C3C               	goto	u3711
  1261  043B  2C3D               	goto	u3710
  1262  043C                     u3711:
  1263  043C  2C98               	goto	l1022
  1264  043D                     u3710:
  1265                           	line	331
  1266                           	
  1267  043D                     l4131:	
  1268                           ;proga.c: 331: n=0;
  1269  043D  01B4               	clrf	(_n)
  1270  043E  01B5               	clrf	(_n+1)
  1271                           	line	332
  1272                           ;proga.c: 332: while (RA5==1){
  1273  043F  2C93               	goto	l4153
  1274                           	
  1275  0440                     l1024:	
  1276                           	line	333
  1277                           	
  1278  0440                     l4133:	
  1279                           ;proga.c: 333: if (n==100)
  1280  0440  3064               	movlw	064h
  1281  0441  0634               	xorwf	(_n),w
  1282  0442  0435               	iorwf	(_n+1),w
  1283  0443  1D03               	skipz
  1284  0444  2C46               	goto	u3721
  1285  0445  2C47               	goto	u3720
  1286  0446                     u3721:
  1287  0446  2C81               	goto	l4151
  1288  0447                     u3720:
  1289                           	line	335
  1290                           	
  1291  0447                     l4135:	
  1292                           ;proga.c: 334: {
  1293                           ;proga.c: 335: if (x==3) goto end;
  1294  0447  3003               	movlw	03h
  1295  0448  067B               	xorwf	(_x),w
  1296  0449  047C               	iorwf	(_x+1),w
  1297  044A  1D03               	skipz
  1298  044B  2C4D               	goto	u3731
  1299  044C  2C4E               	goto	u3730
  1300  044D                     u3731:
  1301  044D  2C50               	goto	l4139
  1302  044E                     u3730:
  1303  044E  2FD1               	goto	l4347
  1304                           	
  1305  044F                     l4137:	
  1306  044F  2FD1               	goto	l4347
  1307                           	
  1308  0450                     l1026:	
  1309                           	line	336
  1310                           	
  1311  0450                     l4139:	
  1312                           ;proga.c: 336: if (x==0) goto end;
  1313  0450  087C               	movf	((_x+1)),w
  1314  0451  047B               	iorwf	((_x)),w
  1315  0452  1D03               	skipz
  1316  0453  2C55               	goto	u3741
  1317  0454  2C56               	goto	u3740
  1318  0455                     u3741:
  1319  0455  2C58               	goto	l4143
  1320  0456                     u3740:
  1321  0456  2FD1               	goto	l4347
  1322                           	
  1323  0457                     l4141:	
  1324  0457  2FD1               	goto	l4347
  1325                           	
  1326  0458                     l1027:	
  1327                           	line	337
  1328                           	
  1329  0458                     l4143:	
  1330                           ;proga.c: 337: if (x<5){
  1331  0458  087C               	movf	(_x+1),w
  1332  0459  3A80               	xorlw	80h
  1333  045A  00FF               	movwf	btemp+1
  1334  045B  3080               	movlw	(high(05h))^80h
  1335  045C  027F               	subwf	btemp+1,w
  1336  045D  1D03               	skipz
  1337  045E  2C61               	goto	u3755
  1338  045F  3005               	movlw	low(05h)
  1339  0460  027B               	subwf	(_x),w
  1340  0461                     u3755:
  1341                           
  1342  0461  1803               	skipnc
  1343  0462  2C64               	goto	u3751
  1344  0463  2C65               	goto	u3750
  1345  0464                     u3751:
  1346  0464  2FD1               	goto	l4347
  1347  0465                     u3750:
  1348                           	line	338
  1349                           	
  1350  0465                     l4145:	
  1351                           ;proga.c: 338: LCDWrite(57, 1);
  1352  0465  3039               	movlw	low(039h)
  1353  0466  00F0               	movwf	(?_LCDWrite)
  1354  0467  3000               	movlw	high(039h)
  1355  0468  00F1               	movwf	((?_LCDWrite))+1
  1356  0469  3001               	movlw	low(01h)
  1357  046A  00F2               	movwf	0+(?_LCDWrite)+02h
  1358  046B  3000               	movlw	high(01h)
  1359  046C  00F3               	movwf	(0+(?_LCDWrite)+02h)+1
  1360  046D  118A  2132  118A   	fcall	_LCDWrite
  1361                           	line	339
  1362                           	
  1363  0470                     l4147:	
  1364                           ;proga.c: 339: x++;
  1365  0470  3001               	movlw	low(01h)
  1366  0471  07FB               	addwf	(_x),f
  1367  0472  1803               	skipnc
  1368  0473  0AFC               	incf	(_x+1),f
  1369  0474  3000               	movlw	high(01h)
  1370  0475  07FC               	addwf	(_x+1),f
  1371                           	line	340
  1372                           	
  1373  0476                     l4149:	
  1374                           ;proga.c: 340: mas[x]=57;
  1375  0476  3039               	movlw	(039h)
  1376  0477  00F8               	movwf	(??_main+0)+0
  1377  0478  087B               	movf	(_x),w
  1378  0479  3E20               	addlw	_mas&0ffh
  1379  047A  0084               	movwf	fsr0
  1380  047B  0878               	movf	(??_main+0)+0,w
  1381  047C  1383               	bcf	status, 7	;select IRP bank0
  1382  047D  0080               	movwf	indf
  1383                           	line	341
  1384                           ;proga.c: 341: }
  1385  047E  2C81               	goto	l4151
  1386                           	line	342
  1387                           	
  1388  047F                     l1028:	
  1389                           ;proga.c: 342: else goto end;
  1390  047F  2FD1               	goto	l4347
  1391                           	
  1392  0480                     l1029:	
  1393  0480  2C81               	goto	l4151
  1394                           	line	343
  1395                           	
  1396  0481                     l1025:	
  1397                           	line	344
  1398                           	
  1399  0481                     l4151:	
  1400                           ;proga.c: 343: }
  1401                           ;proga.c: 344: _delay((unsigned long)((2)*(4000000/4000.0)));
  1402                           	opt asmopt_off
  1403  0481  3003               movlw	3
  1404  0482  00F9               movwf	((??_main+0)+0+1),f
  1405  0483  3097               	movlw	151
  1406  0484  00F8               movwf	((??_main+0)+0),f
  1407  0485                     u4247:
  1408  0485  0BF8               	decfsz	((??_main+0)+0),f
  1409  0486  2C85               	goto	u4247
  1410  0487  0BF9               	decfsz	((??_main+0)+0+1),f
  1411  0488  2C85               	goto	u4247
  1412  0489  2C8A               	nop2
  1413                           opt asmopt_on
  1414                           
  1415                           	line	345
  1416                           ;proga.c: 345: n++;
  1417  048A  3001               	movlw	low(01h)
  1418  048B  1283               	bcf	status, 5	;RP0=0, select bank0
  1419  048C  1303               	bcf	status, 6	;RP1=0, select bank0
  1420  048D  07B4               	addwf	(_n),f
  1421  048E  1803               	skipnc
  1422  048F  0AB5               	incf	(_n+1),f
  1423  0490  3000               	movlw	high(01h)
  1424  0491  07B5               	addwf	(_n+1),f
  1425  0492  2C93               	goto	l4153
  1426                           	line	346
  1427                           	
  1428  0493                     l1023:	
  1429                           	line	332
  1430                           	
  1431  0493                     l4153:	
  1432  0493  1A85               	btfsc	(45/8),(45)&7
  1433  0494  2C96               	goto	u3761
  1434  0495  2C97               	goto	u3760
  1435  0496                     u3761:
  1436  0496  2C40               	goto	l4133
  1437  0497                     u3760:
  1438  0497  2C98               	goto	l1022
  1439                           	
  1440  0498                     l1030:	
  1441                           	line	346
  1442                           	
  1443  0498                     l1022:	
  1444                           	line	348
  1445                           ;proga.c: 346: }}
  1446                           ;proga.c: 348: if (RA3==1){
  1447  0498  1D85               	btfss	(43/8),(43)&7
  1448  0499  2C9B               	goto	u3771
  1449  049A  2C9C               	goto	u3770
  1450  049B                     u3771:
  1451  049B  2D57               	goto	l1031
  1452  049C                     u3770:
  1453                           	line	349
  1454                           	
  1455  049C                     l4155:	
  1456                           ;proga.c: 349: n=0;
  1457  049C  01B4               	clrf	(_n)
  1458  049D  01B5               	clrf	(_n+1)
  1459                           	line	350
  1460                           ;proga.c: 350: while (RA3==1){
  1461  049E  2D52               	goto	l4201
  1462                           	
  1463  049F                     l1033:	
  1464                           	line	351
  1465                           	
  1466  049F                     l4157:	
  1467                           ;proga.c: 351: if (n==100)
  1468  049F  3064               	movlw	064h
  1469  04A0  0634               	xorwf	(_n),w
  1470  04A1  0435               	iorwf	(_n+1),w
  1471  04A2  1D03               	skipz
  1472  04A3  2CA5               	goto	u3781
  1473  04A4  2CA6               	goto	u3780
  1474  04A5                     u3781:
  1475  04A5  2D40               	goto	l4199
  1476  04A6                     u3780:
  1477                           	line	353
  1478                           	
  1479  04A6                     l4159:	
  1480                           ;proga.c: 352: {
  1481                           ;proga.c: 353: if (x>4){
  1482  04A6  087C               	movf	(_x+1),w
  1483  04A7  3A80               	xorlw	80h
  1484  04A8  00FF               	movwf	btemp+1
  1485  04A9  3080               	movlw	(high(05h))^80h
  1486  04AA  027F               	subwf	btemp+1,w
  1487  04AB  1D03               	skipz
  1488  04AC  2CAF               	goto	u3795
  1489  04AD  3005               	movlw	low(05h)
  1490  04AE  027B               	subwf	(_x),w
  1491  04AF                     u3795:
  1492                           
  1493  04AF  1C03               	skipc
  1494  04B0  2CB2               	goto	u3791
  1495  04B1  2CB3               	goto	u3790
  1496  04B2                     u3791:
  1497  04B2  2D40               	goto	l4199
  1498  04B3                     u3790:
  1499                           	line	354
  1500                           	
  1501  04B3                     l4161:	
  1502                           ;proga.c: 354: for(j=0;j<6;j++) mas2[j]=mas[j];
  1503  04B3  1283               	bcf	status, 5	;RP0=0, select bank0
  1504  04B4  1303               	bcf	status, 6	;RP1=0, select bank0
  1505  04B5  01B2               	clrf	(_j)
  1506  04B6  01B3               	clrf	(_j+1)
  1507                           	
  1508  04B7                     l4163:	
  1509  04B7  0833               	movf	(_j+1),w
  1510  04B8  3A80               	xorlw	80h
  1511  04B9  00FF               	movwf	btemp+1
  1512  04BA  3080               	movlw	(high(06h))^80h
  1513  04BB  027F               	subwf	btemp+1,w
  1514  04BC  1D03               	skipz
  1515  04BD  2CC0               	goto	u3805
  1516  04BE  3006               	movlw	low(06h)
  1517  04BF  0232               	subwf	(_j),w
  1518  04C0                     u3805:
  1519                           
  1520  04C0  1C03               	skipc
  1521  04C1  2CC3               	goto	u3801
  1522  04C2  2CC4               	goto	u3800
  1523  04C3                     u3801:
  1524  04C3  2CC6               	goto	l4167
  1525  04C4                     u3800:
  1526  04C4  2CE7               	goto	l4173
  1527                           	
  1528  04C5                     l4165:	
  1529  04C5  2CE7               	goto	l4173
  1530                           	
  1531  04C6                     l1036:	
  1532                           	
  1533  04C6                     l4167:	
  1534  04C6  1283               	bcf	status, 5	;RP0=0, select bank0
  1535  04C7  1303               	bcf	status, 6	;RP1=0, select bank0
  1536  04C8  0832               	movf	(_j),w
  1537  04C9  3E20               	addlw	_mas&0ffh
  1538  04CA  0084               	movwf	fsr0
  1539  04CB  1383               	bcf	status, 7	;select IRP bank0
  1540  04CC  0800               	movf	indf,w
  1541  04CD  00F8               	movwf	(??_main+0)+0
  1542  04CE  0832               	movf	(_j),w
  1543  04CF  3E26               	addlw	_mas2&0ffh
  1544  04D0  0084               	movwf	fsr0
  1545  04D1  0878               	movf	(??_main+0)+0,w
  1546  04D2  0080               	movwf	indf
  1547                           	
  1548  04D3                     l4169:	
  1549  04D3  3001               	movlw	low(01h)
  1550  04D4  07B2               	addwf	(_j),f
  1551  04D5  1803               	skipnc
  1552  04D6  0AB3               	incf	(_j+1),f
  1553  04D7  3000               	movlw	high(01h)
  1554  04D8  07B3               	addwf	(_j+1),f
  1555                           	
  1556  04D9                     l4171:	
  1557  04D9  0833               	movf	(_j+1),w
  1558  04DA  3A80               	xorlw	80h
  1559  04DB  00FF               	movwf	btemp+1
  1560  04DC  3080               	movlw	(high(06h))^80h
  1561  04DD  027F               	subwf	btemp+1,w
  1562  04DE  1D03               	skipz
  1563  04DF  2CE2               	goto	u3815
  1564  04E0  3006               	movlw	low(06h)
  1565  04E1  0232               	subwf	(_j),w
  1566  04E2                     u3815:
  1567                           
  1568  04E2  1C03               	skipc
  1569  04E3  2CE5               	goto	u3811
  1570  04E4  2CE6               	goto	u3810
  1571  04E5                     u3811:
  1572  04E5  2CC6               	goto	l4167
  1573  04E6                     u3810:
  1574  04E6  2CE7               	goto	l4173
  1575                           	
  1576  04E7                     l1037:	
  1577                           	line	355
  1578                           	
  1579  04E7                     l4173:	
  1580                           ;proga.c: 355: buzz1();
  1581  04E7  118A  21D8  118A   	fcall	_buzz1
  1582                           	line	356
  1583                           ;proga.c: 356: buzz1();
  1584  04EA  118A  21D8  118A   	fcall	_buzz1
  1585                           	line	357
  1586                           	
  1587  04ED                     l4175:	
  1588                           ;proga.c: 357: flag=1;
  1589  04ED  1283               	bcf	status, 5	;RP0=0, select bank0
  1590  04EE  1303               	bcf	status, 6	;RP1=0, select bank0
  1591  04EF  01BC               	clrf	(_flag)
  1592  04F0  1403               	bsf	status,0
  1593  04F1  0DBC               	rlf	(_flag),f
  1594                           	line	358
  1595                           	
  1596  04F2                     l4177:	
  1597                           ;proga.c: 358: RB6=1;
  1598  04F2  1706               	bsf	(54/8),(54)&7
  1599                           	line	359
  1600                           	
  1601  04F3                     l4179:	
  1602                           ;proga.c: 359: RB7=1;
  1603  04F3  1786               	bsf	(55/8),(55)&7
  1604                           	line	360
  1605                           	
  1606  04F4                     l4181:	
  1607                           ;proga.c: 360: for(j=0;j<6;j++){
  1608  04F4  01B2               	clrf	(_j)
  1609  04F5  01B3               	clrf	(_j+1)
  1610                           	
  1611  04F6                     l4183:	
  1612  04F6  0833               	movf	(_j+1),w
  1613  04F7  3A80               	xorlw	80h
  1614  04F8  00FF               	movwf	btemp+1
  1615  04F9  3080               	movlw	(high(06h))^80h
  1616  04FA  027F               	subwf	btemp+1,w
  1617  04FB  1D03               	skipz
  1618  04FC  2CFF               	goto	u3825
  1619  04FD  3006               	movlw	low(06h)
  1620  04FE  0232               	subwf	(_j),w
  1621  04FF                     u3825:
  1622                           
  1623  04FF  1C03               	skipc
  1624  0500  2D02               	goto	u3821
  1625  0501  2D03               	goto	u3820
  1626  0502                     u3821:
  1627  0502  2D05               	goto	l4187
  1628  0503                     u3820:
  1629  0503  2D2D               	goto	l4193
  1630                           	
  1631  0504                     l4185:	
  1632  0504  2D2D               	goto	l4193
  1633                           	
  1634  0505                     l1038:	
  1635                           	line	361
  1636                           	
  1637  0505                     l4187:	
  1638                           ;proga.c: 361: q=mas2[j]-48;
  1639  0505  1283               	bcf	status, 5	;RP0=0, select bank0
  1640  0506  1303               	bcf	status, 6	;RP1=0, select bank0
  1641  0507  0832               	movf	(_j),w
  1642  0508  3E26               	addlw	_mas2&0ffh
  1643  0509  0084               	movwf	fsr0
  1644  050A  1383               	bcf	status, 7	;select IRP bank0
  1645  050B  0800               	movf	indf,w
  1646  050C  3ED0               	addlw	low(-48)
  1647  050D  00B8               	movwf	(_q)
  1648  050E  30FF               	movlw	high(-48)
  1649  050F  1803               	skipnc
  1650  0510  3000               	movlw	(high(-48)+1)&0ffh
  1651  0511  00B9               	movwf	((_q))+1
  1652                           	line	362
  1653                           ;proga.c: 362: mas3[j]=q;
  1654  0512  0838               	movf	(_q),w
  1655  0513  00F8               	movwf	(??_main+0)+0
  1656  0514  0832               	movf	(_j),w
  1657  0515  3E2C               	addlw	_mas3&0ffh
  1658  0516  0084               	movwf	fsr0
  1659  0517  0878               	movf	(??_main+0)+0,w
  1660  0518  0080               	movwf	indf
  1661                           	line	360
  1662                           	
  1663  0519                     l4189:	
  1664  0519  3001               	movlw	low(01h)
  1665  051A  07B2               	addwf	(_j),f
  1666  051B  1803               	skipnc
  1667  051C  0AB3               	incf	(_j+1),f
  1668  051D  3000               	movlw	high(01h)
  1669  051E  07B3               	addwf	(_j+1),f
  1670                           	
  1671  051F                     l4191:	
  1672  051F  0833               	movf	(_j+1),w
  1673  0520  3A80               	xorlw	80h
  1674  0521  00FF               	movwf	btemp+1
  1675  0522  3080               	movlw	(high(06h))^80h
  1676  0523  027F               	subwf	btemp+1,w
  1677  0524  1D03               	skipz
  1678  0525  2D28               	goto	u3835
  1679  0526  3006               	movlw	low(06h)
  1680  0527  0232               	subwf	(_j),w
  1681  0528                     u3835:
  1682                           
  1683  0528  1C03               	skipc
  1684  0529  2D2B               	goto	u3831
  1685  052A  2D2C               	goto	u3830
  1686  052B                     u3831:
  1687  052B  2D05               	goto	l4187
  1688  052C                     u3830:
  1689  052C  2D2D               	goto	l4193
  1690                           	
  1691  052D                     l1039:	
  1692                           	line	364
  1693                           	
  1694  052D                     l4193:	
  1695                           ;proga.c: 363: }
  1696                           ;proga.c: 364: Increment();
  1697  052D  158A  2553  118A   	fcall	_Increment
  1698                           	line	365
  1699                           	
  1700  0530                     l4195:	
  1701                           ;proga.c: 365: LCDWrite(1,0);
  1702  0530  3001               	movlw	low(01h)
  1703  0531  00F0               	movwf	(?_LCDWrite)
  1704  0532  3000               	movlw	high(01h)
  1705  0533  00F1               	movwf	((?_LCDWrite))+1
  1706  0534  3000               	movlw	low(0)
  1707  0535  00F2               	movwf	0+(?_LCDWrite)+02h
  1708  0536  3000               	movlw	high(0)
  1709  0537  00F3               	movwf	(0+(?_LCDWrite)+02h)+1
  1710  0538  118A  2132  118A   	fcall	_LCDWrite
  1711                           	line	366
  1712                           	
  1713  053B                     l4197:	
  1714                           ;proga.c: 366: Message1();
  1715  053B  118A  20A9  118A   	fcall	_Message1
  1716                           	line	367
  1717                           ;proga.c: 367: goto start;
  1718  053E  2AAF               	goto	l989
  1719                           	line	368
  1720                           	
  1721  053F                     l1035:	
  1722  053F  2D40               	goto	l4199
  1723                           	line	369
  1724                           	
  1725  0540                     l1034:	
  1726                           	line	370
  1727                           	
  1728  0540                     l4199:	
  1729                           ;proga.c: 368: }
  1730                           ;proga.c: 369: }
  1731                           ;proga.c: 370: _delay((unsigned long)((2)*(4000000/4000.0)));
  1732                           	opt asmopt_off
  1733  0540  3003               movlw	3
  1734  0541  00F9               movwf	((??_main+0)+0+1),f
  1735  0542  3097               	movlw	151
  1736  0543  00F8               movwf	((??_main+0)+0),f
  1737  0544                     u4257:
  1738  0544  0BF8               	decfsz	((??_main+0)+0),f
  1739  0545  2D44               	goto	u4257
  1740  0546  0BF9               	decfsz	((??_main+0)+0+1),f
  1741  0547  2D44               	goto	u4257
  1742  0548  2D49               	nop2
  1743                           opt asmopt_on
  1744                           
  1745                           	line	371
  1746                           ;proga.c: 371: n++;
  1747  0549  3001               	movlw	low(01h)
  1748  054A  1283               	bcf	status, 5	;RP0=0, select bank0
  1749  054B  1303               	bcf	status, 6	;RP1=0, select bank0
  1750  054C  07B4               	addwf	(_n),f
  1751  054D  1803               	skipnc
  1752  054E  0AB5               	incf	(_n+1),f
  1753  054F  3000               	movlw	high(01h)
  1754  0550  07B5               	addwf	(_n+1),f
  1755  0551  2D52               	goto	l4201
  1756                           	line	372
  1757                           	
  1758  0552                     l1032:	
  1759                           	line	350
  1760                           	
  1761  0552                     l4201:	
  1762  0552  1985               	btfsc	(43/8),(43)&7
  1763  0553  2D55               	goto	u3841
  1764  0554  2D56               	goto	u3840
  1765  0555                     u3841:
  1766  0555  2C9F               	goto	l4157
  1767  0556                     u3840:
  1768  0556  2D57               	goto	l1031
  1769                           	
  1770  0557                     l1040:	
  1771                           	line	372
  1772                           	
  1773  0557                     l1031:	
  1774                           	line	374
  1775                           ;proga.c: 372: }}
  1776                           ;proga.c: 374: if(RA3==1) {
  1777  0557  2D58               	goto	l4203
  1778                           	line	376
  1779                           	
  1780  0558                     l1041:	
  1781                           	line	378
  1782                           	
  1783  0558                     l4203:	
  1784                           ;proga.c: 376: }
  1785                           ;proga.c: 378: _delay((unsigned long)((5)*(4000000/4000.0)));
  1786                           	opt asmopt_off
  1787  0558  3007               movlw	7
  1788  0559  00F9               movwf	((??_main+0)+0+1),f
  1789  055A  307D               	movlw	125
  1790  055B  00F8               movwf	((??_main+0)+0),f
  1791  055C                     u4267:
  1792  055C  0BF8               	decfsz	((??_main+0)+0),f
  1793  055D  2D5C               	goto	u4267
  1794  055E  0BF9               	decfsz	((??_main+0)+0+1),f
  1795  055F  2D5C               	goto	u4267
  1796                           opt asmopt_on
  1797                           
  1798                           	line	380
  1799                           ;proga.c: 380: TRISA=0b11111011;
  1800  0560  30FB               	movlw	(0FBh)
  1801  0561  1683               	bsf	status, 5	;RP0=1, select bank1
  1802  0562  1303               	bcf	status, 6	;RP1=0, select bank1
  1803  0563  0085               	movwf	(133)^080h	;volatile
  1804                           	line	381
  1805                           	
  1806  0564                     l4205:	
  1807                           ;proga.c: 381: TRISB=0b00000000;
  1808  0564  0186               	clrf	(134)^080h	;volatile
  1809                           	line	382
  1810                           	
  1811  0565                     l4207:	
  1812                           ;proga.c: 382: PORTA=0b00000100;
  1813  0565  3004               	movlw	(04h)
  1814  0566  1283               	bcf	status, 5	;RP0=0, select bank0
  1815  0567  1303               	bcf	status, 6	;RP1=0, select bank0
  1816  0568  0085               	movwf	(5)	;volatile
  1817                           	line	384
  1818                           	
  1819  0569                     l4209:	
  1820                           ;proga.c: 384: _delay((unsigned long)((5)*(4000000/4000.0)));
  1821                           	opt asmopt_off
  1822  0569  3007               movlw	7
  1823  056A  00F9               movwf	((??_main+0)+0+1),f
  1824  056B  307D               	movlw	125
  1825  056C  00F8               movwf	((??_main+0)+0),f
  1826  056D                     u4277:
  1827  056D  0BF8               	decfsz	((??_main+0)+0),f
  1828  056E  2D6D               	goto	u4277
  1829  056F  0BF9               	decfsz	((??_main+0)+0+1),f
  1830  0570  2D6D               	goto	u4277
  1831                           opt asmopt_on
  1832                           
  1833                           	line	386
  1834                           	
  1835  0571                     l4211:	
  1836                           ;proga.c: 386: if (RA1==1){
  1837  0571  1283               	bcf	status, 5	;RP0=0, select bank0
  1838  0572  1303               	bcf	status, 6	;RP1=0, select bank0
  1839  0573  1C85               	btfss	(41/8),(41)&7
  1840  0574  2D76               	goto	u3851
  1841  0575  2D77               	goto	u3850
  1842  0576                     u3851:
  1843  0576  2DC1               	goto	l1042
  1844  0577                     u3850:
  1845                           	line	387
  1846                           	
  1847  0577                     l4213:	
  1848                           ;proga.c: 387: n=0;
  1849  0577  01B4               	clrf	(_n)
  1850  0578  01B5               	clrf	(_n+1)
  1851                           	line	388
  1852                           ;proga.c: 388: while (RA1==1){
  1853  0579  2DBC               	goto	l4227
  1854                           	
  1855  057A                     l1044:	
  1856                           	line	389
  1857                           	
  1858  057A                     l4215:	
  1859                           ;proga.c: 389: if (n==100)
  1860  057A  3064               	movlw	064h
  1861  057B  0634               	xorwf	(_n),w
  1862  057C  0435               	iorwf	(_n+1),w
  1863  057D  1D03               	skipz
  1864  057E  2D80               	goto	u3861
  1865  057F  2D81               	goto	u3860
  1866  0580                     u3861:
  1867  0580  2DAA               	goto	l4225
  1868  0581                     u3860:
  1869                           	line	391
  1870                           	
  1871  0581                     l4217:	
  1872                           ;proga.c: 390: {
  1873                           ;proga.c: 391: if (x<5){
  1874  0581  087C               	movf	(_x+1),w
  1875  0582  3A80               	xorlw	80h
  1876  0583  00FF               	movwf	btemp+1
  1877  0584  3080               	movlw	(high(05h))^80h
  1878  0585  027F               	subwf	btemp+1,w
  1879  0586  1D03               	skipz
  1880  0587  2D8A               	goto	u3875
  1881  0588  3005               	movlw	low(05h)
  1882  0589  027B               	subwf	(_x),w
  1883  058A                     u3875:
  1884                           
  1885  058A  1803               	skipnc
  1886  058B  2D8D               	goto	u3871
  1887  058C  2D8E               	goto	u3870
  1888  058D                     u3871:
  1889  058D  2FD1               	goto	l4347
  1890  058E                     u3870:
  1891                           	line	392
  1892                           	
  1893  058E                     l4219:	
  1894                           ;proga.c: 392: LCDWrite(49, 1);
  1895  058E  3031               	movlw	low(031h)
  1896  058F  00F0               	movwf	(?_LCDWrite)
  1897  0590  3000               	movlw	high(031h)
  1898  0591  00F1               	movwf	((?_LCDWrite))+1
  1899  0592  3001               	movlw	low(01h)
  1900  0593  00F2               	movwf	0+(?_LCDWrite)+02h
  1901  0594  3000               	movlw	high(01h)
  1902  0595  00F3               	movwf	(0+(?_LCDWrite)+02h)+1
  1903  0596  118A  2132  118A   	fcall	_LCDWrite
  1904                           	line	393
  1905                           	
  1906  0599                     l4221:	
  1907                           ;proga.c: 393: x++;
  1908  0599  3001               	movlw	low(01h)
  1909  059A  07FB               	addwf	(_x),f
  1910  059B  1803               	skipnc
  1911  059C  0AFC               	incf	(_x+1),f
  1912  059D  3000               	movlw	high(01h)
  1913  059E  07FC               	addwf	(_x+1),f
  1914                           	line	394
  1915                           	
  1916  059F                     l4223:	
  1917                           ;proga.c: 394: mas[x]=49;
  1918  059F  3031               	movlw	(031h)
  1919  05A0  00F8               	movwf	(??_main+0)+0
  1920  05A1  087B               	movf	(_x),w
  1921  05A2  3E20               	addlw	_mas&0ffh
  1922  05A3  0084               	movwf	fsr0
  1923  05A4  0878               	movf	(??_main+0)+0,w
  1924  05A5  1383               	bcf	status, 7	;select IRP bank0
  1925  05A6  0080               	movwf	indf
  1926                           	line	395
  1927                           ;proga.c: 395: }
  1928  05A7  2DAA               	goto	l4225
  1929                           	line	396
  1930                           	
  1931  05A8                     l1046:	
  1932                           ;proga.c: 396: else goto end;
  1933  05A8  2FD1               	goto	l4347
  1934                           	
  1935  05A9                     l1047:	
  1936  05A9  2DAA               	goto	l4225
  1937                           	line	397
  1938                           	
  1939  05AA                     l1045:	
  1940                           	line	398
  1941                           	
  1942  05AA                     l4225:	
  1943                           ;proga.c: 397: }
  1944                           ;proga.c: 398: _delay((unsigned long)((2)*(4000000/4000.0)));
  1945                           	opt asmopt_off
  1946  05AA  3003               movlw	3
  1947  05AB  00F9               movwf	((??_main+0)+0+1),f
  1948  05AC  3097               	movlw	151
  1949  05AD  00F8               movwf	((??_main+0)+0),f
  1950  05AE                     u4287:
  1951  05AE  0BF8               	decfsz	((??_main+0)+0),f
  1952  05AF  2DAE               	goto	u4287
  1953  05B0  0BF9               	decfsz	((??_main+0)+0+1),f
  1954  05B1  2DAE               	goto	u4287
  1955  05B2  2DB3               	nop2
  1956                           opt asmopt_on
  1957                           
  1958                           	line	399
  1959                           ;proga.c: 399: n++;
  1960  05B3  3001               	movlw	low(01h)
  1961  05B4  1283               	bcf	status, 5	;RP0=0, select bank0
  1962  05B5  1303               	bcf	status, 6	;RP1=0, select bank0
  1963  05B6  07B4               	addwf	(_n),f
  1964  05B7  1803               	skipnc
  1965  05B8  0AB5               	incf	(_n+1),f
  1966  05B9  3000               	movlw	high(01h)
  1967  05BA  07B5               	addwf	(_n+1),f
  1968  05BB  2DBC               	goto	l4227
  1969                           	line	400
  1970                           	
  1971  05BC                     l1043:	
  1972                           	line	388
  1973                           	
  1974  05BC                     l4227:	
  1975  05BC  1885               	btfsc	(41/8),(41)&7
  1976  05BD  2DBF               	goto	u3881
  1977  05BE  2DC0               	goto	u3880
  1978  05BF                     u3881:
  1979  05BF  2D7A               	goto	l4215
  1980  05C0                     u3880:
  1981  05C0  2DC1               	goto	l1042
  1982                           	
  1983  05C1                     l1048:	
  1984                           	line	400
  1985                           	
  1986  05C1                     l1042:	
  1987                           	line	402
  1988                           ;proga.c: 400: }}
  1989                           ;proga.c: 402: if (RA3==1){
  1990  05C1  1D85               	btfss	(43/8),(43)&7
  1991  05C2  2DC4               	goto	u3891
  1992  05C3  2DC5               	goto	u3890
  1993  05C4                     u3891:
  1994  05C4  2E5A               	goto	l1049
  1995  05C5                     u3890:
  1996                           	line	403
  1997                           	
  1998  05C5                     l4229:	
  1999                           ;proga.c: 403: n=0;
  2000  05C5  01B4               	clrf	(_n)
  2001  05C6  01B5               	clrf	(_n+1)
  2002                           	line	404
  2003                           ;proga.c: 404: while (RA3==1){
  2004  05C7  2E55               	goto	l4255
  2005                           	
  2006  05C8                     l1051:	
  2007                           	line	405
  2008                           	
  2009  05C8                     l4231:	
  2010                           ;proga.c: 405: if (n==100)
  2011  05C8  3064               	movlw	064h
  2012  05C9  0634               	xorwf	(_n),w
  2013  05CA  0435               	iorwf	(_n+1),w
  2014  05CB  1D03               	skipz
  2015  05CC  2DCE               	goto	u3901
  2016  05CD  2DCF               	goto	u3900
  2017  05CE                     u3901:
  2018  05CE  2E43               	goto	l4253
  2019  05CF                     u3900:
  2020                           	line	407
  2021                           	
  2022  05CF                     l4233:	
  2023                           ;proga.c: 406: {
  2024                           ;proga.c: 407: if (x==3){
  2025  05CF  3003               	movlw	03h
  2026  05D0  067B               	xorwf	(_x),w
  2027  05D1  047C               	iorwf	(_x+1),w
  2028  05D2  1D03               	skipz
  2029  05D3  2DD5               	goto	u3911
  2030  05D4  2DD6               	goto	u3910
  2031  05D5                     u3911:
  2032  05D5  2DDF               	goto	l4237
  2033  05D6                     u3910:
  2034                           	line	408
  2035                           	
  2036  05D6                     l4235:	
  2037                           ;proga.c: 408: x=x-1;
  2038  05D6  087B               	movf	(_x),w
  2039  05D7  3EFF               	addlw	low(-1)
  2040  05D8  00FB               	movwf	(_x)
  2041  05D9  087C               	movf	(_x+1),w
  2042  05DA  1803               	skipnc
  2043  05DB  3E01               	addlw	1
  2044  05DC  3EFF               	addlw	high(-1)
  2045  05DD  00FC               	movwf	1+(_x)
  2046  05DE  2DDF               	goto	l4237
  2047                           	line	409
  2048                           	
  2049  05DF                     l1053:	
  2050                           	line	410
  2051                           	
  2052  05DF                     l4237:	
  2053                           ;proga.c: 409: }
  2054                           ;proga.c: 410: if (x>0){
  2055  05DF  087C               	movf	(_x+1),w
  2056  05E0  3A80               	xorlw	80h
  2057  05E1  00FF               	movwf	btemp+1
  2058  05E2  3080               	movlw	(high(01h))^80h
  2059  05E3  027F               	subwf	btemp+1,w
  2060  05E4  1D03               	skipz
  2061  05E5  2DE8               	goto	u3925
  2062  05E6  3001               	movlw	low(01h)
  2063  05E7  027B               	subwf	(_x),w
  2064  05E8                     u3925:
  2065                           
  2066  05E8  1C03               	skipc
  2067  05E9  2DEB               	goto	u3921
  2068  05EA  2DEC               	goto	u3920
  2069  05EB                     u3921:
  2070  05EB  2FD1               	goto	l4347
  2071  05EC                     u3920:
  2072                           	line	411
  2073                           	
  2074  05EC                     l4239:	
  2075                           ;proga.c: 411: x--;
  2076  05EC  30FF               	movlw	low(-1)
  2077  05ED  07FB               	addwf	(_x),f
  2078  05EE  1803               	skipnc
  2079  05EF  0AFC               	incf	(_x+1),f
  2080  05F0  30FF               	movlw	high(-1)
  2081  05F1  07FC               	addwf	(_x+1),f
  2082                           	line	412
  2083                           	
  2084  05F2                     l4241:	
  2085                           ;proga.c: 412: LCDWrite(1, 0);
  2086  05F2  3001               	movlw	low(01h)
  2087  05F3  00F0               	movwf	(?_LCDWrite)
  2088  05F4  3000               	movlw	high(01h)
  2089  05F5  00F1               	movwf	((?_LCDWrite))+1
  2090  05F6  3000               	movlw	low(0)
  2091  05F7  00F2               	movwf	0+(?_LCDWrite)+02h
  2092  05F8  3000               	movlw	high(0)
  2093  05F9  00F3               	movwf	(0+(?_LCDWrite)+02h)+1
  2094  05FA  118A  2132  118A   	fcall	_LCDWrite
  2095                           	line	413
  2096                           	
  2097  05FD                     l4243:	
  2098                           ;proga.c: 413: Message1();
  2099  05FD  118A  20A9  118A   	fcall	_Message1
  2100                           	line	414
  2101                           ;proga.c: 414: y=1;
  2102  0600  3001               	movlw	low(01h)
  2103  0601  1283               	bcf	status, 5	;RP0=0, select bank0
  2104  0602  1303               	bcf	status, 6	;RP1=0, select bank0
  2105  0603  00BA               	movwf	(_y)
  2106  0604  3000               	movlw	high(01h)
  2107  0605  00BB               	movwf	((_y))+1
  2108  0606  2E07               	goto	l4245
  2109                           	line	415
  2110                           ;proga.c: 415: loop:;
  2111                           	
  2112  0607                     l1055:	
  2113                           	line	416
  2114                           	
  2115  0607                     l4245:	
  2116                           ;proga.c: 416: if(y<x+1){
  2117  0607  087B               	movf	(_x),w
  2118  0608  3E01               	addlw	low(01h)
  2119  0609  00F8               	movwf	(??_main+0)+0
  2120  060A  087C               	movf	(_x+1),w
  2121  060B  1803               	skipnc
  2122  060C  3E01               	addlw	1
  2123  060D  3E00               	addlw	high(01h)
  2124  060E  00F9               	movwf	1+(??_main+0)+0
  2125  060F  083B               	movf	(_y+1),w
  2126  0610  3A80               	xorlw	80h
  2127  0611  00FA               	movwf	(??_main+2)+0
  2128  0612  0879               	movf	1+(??_main+0)+0,w
  2129  0613  3A80               	xorlw	80h
  2130  0614  027A               	subwf	(??_main+2)+0,w
  2131  0615  1D03               	skipz
  2132  0616  2E19               	goto	u3935
  2133  0617  0878               	movf	0+(??_main+0)+0,w
  2134  0618  023A               	subwf	(_y),w
  2135  0619                     u3935:
  2136                           
  2137  0619  1803               	skipnc
  2138  061A  2E1C               	goto	u3931
  2139  061B  2E1D               	goto	u3930
  2140  061C                     u3931:
  2141  061C  2E43               	goto	l4253
  2142  061D                     u3930:
  2143                           	line	417
  2144                           	
  2145  061D                     l4247:	
  2146                           ;proga.c: 417: p=mas[y];
  2147  061D  1283               	bcf	status, 5	;RP0=0, select bank0
  2148  061E  1303               	bcf	status, 6	;RP1=0, select bank0
  2149  061F  083A               	movf	(_y),w
  2150  0620  3E20               	addlw	_mas&0ffh
  2151  0621  0084               	movwf	fsr0
  2152  0622  1383               	bcf	status, 7	;select IRP bank0
  2153  0623  0800               	movf	indf,w
  2154  0624  00F8               	movwf	(??_main+0)+0
  2155  0625  01F9               	clrf	(??_main+0)+0+1
  2156  0626  0878               	movf	0+(??_main+0)+0,w
  2157  0627  00B6               	movwf	(_p)
  2158  0628  0879               	movf	1+(??_main+0)+0,w
  2159  0629  00B7               	movwf	(_p+1)
  2160                           	line	418
  2161                           	
  2162  062A                     l4249:	
  2163                           ;proga.c: 418: LCDWrite(p, 1);
  2164  062A  0837               	movf	(_p+1),w
  2165  062B  01F1               	clrf	(?_LCDWrite+1)
  2166  062C  07F1               	addwf	(?_LCDWrite+1)
  2167  062D  0836               	movf	(_p),w
  2168  062E  01F0               	clrf	(?_LCDWrite)
  2169  062F  07F0               	addwf	(?_LCDWrite)
  2170                           
  2171  0630  3001               	movlw	low(01h)
  2172  0631  00F2               	movwf	0+(?_LCDWrite)+02h
  2173  0632  3000               	movlw	high(01h)
  2174  0633  00F3               	movwf	(0+(?_LCDWrite)+02h)+1
  2175  0634  118A  2132  118A   	fcall	_LCDWrite
  2176                           	line	419
  2177                           	
  2178  0637                     l4251:	
  2179                           ;proga.c: 419: y++;
  2180  0637  3001               	movlw	low(01h)
  2181  0638  1283               	bcf	status, 5	;RP0=0, select bank0
  2182  0639  1303               	bcf	status, 6	;RP1=0, select bank0
  2183  063A  07BA               	addwf	(_y),f
  2184  063B  1803               	skipnc
  2185  063C  0ABB               	incf	(_y+1),f
  2186  063D  3000               	movlw	high(01h)
  2187  063E  07BB               	addwf	(_y+1),f
  2188                           	line	420
  2189                           ;proga.c: 420: goto loop;
  2190  063F  2E07               	goto	l4245
  2191                           	line	421
  2192                           	
  2193  0640                     l1056:	
  2194                           ;proga.c: 421: }}
  2195  0640  2E43               	goto	l4253
  2196                           	line	422
  2197                           	
  2198  0641                     l1054:	
  2199                           ;proga.c: 422: else goto end;
  2200  0641  2FD1               	goto	l4347
  2201                           	
  2202  0642                     l1057:	
  2203  0642  2E43               	goto	l4253
  2204                           	line	423
  2205                           	
  2206  0643                     l1052:	
  2207                           	line	424
  2208                           	
  2209  0643                     l4253:	
  2210                           ;proga.c: 423: }
  2211                           ;proga.c: 424: _delay((unsigned long)((2)*(4000000/4000.0)));
  2212                           	opt asmopt_off
  2213  0643  3003               movlw	3
  2214  0644  00F9               movwf	((??_main+0)+0+1),f
  2215  0645  3097               	movlw	151
  2216  0646  00F8               movwf	((??_main+0)+0),f
  2217  0647                     u4297:
  2218  0647  0BF8               	decfsz	((??_main+0)+0),f
  2219  0648  2E47               	goto	u4297
  2220  0649  0BF9               	decfsz	((??_main+0)+0+1),f
  2221  064A  2E47               	goto	u4297
  2222  064B  2E4C               	nop2
  2223                           opt asmopt_on
  2224                           
  2225                           	line	425
  2226                           ;proga.c: 425: n++;
  2227  064C  3001               	movlw	low(01h)
  2228  064D  1283               	bcf	status, 5	;RP0=0, select bank0
  2229  064E  1303               	bcf	status, 6	;RP1=0, select bank0
  2230  064F  07B4               	addwf	(_n),f
  2231  0650  1803               	skipnc
  2232  0651  0AB5               	incf	(_n+1),f
  2233  0652  3000               	movlw	high(01h)
  2234  0653  07B5               	addwf	(_n+1),f
  2235  0654  2E55               	goto	l4255
  2236                           	line	426
  2237                           	
  2238  0655                     l1050:	
  2239                           	line	404
  2240                           	
  2241  0655                     l4255:	
  2242  0655  1985               	btfsc	(43/8),(43)&7
  2243  0656  2E58               	goto	u3941
  2244  0657  2E59               	goto	u3940
  2245  0658                     u3941:
  2246  0658  2DC8               	goto	l4231
  2247  0659                     u3940:
  2248  0659  2E5A               	goto	l1049
  2249                           	
  2250  065A                     l1058:	
  2251                           	line	426
  2252                           	
  2253  065A                     l1049:	
  2254                           	line	428
  2255                           ;proga.c: 426: }}
  2256                           ;proga.c: 428: if (RA5==1){
  2257  065A  1E85               	btfss	(45/8),(45)&7
  2258  065B  2E5D               	goto	u3951
  2259  065C  2E5E               	goto	u3950
  2260  065D                     u3951:
  2261  065D  2EBA               	goto	l4281
  2262  065E                     u3950:
  2263                           	line	429
  2264                           	
  2265  065E                     l4257:	
  2266                           ;proga.c: 429: n=0;
  2267  065E  01B4               	clrf	(_n)
  2268  065F  01B5               	clrf	(_n+1)
  2269                           	line	430
  2270                           ;proga.c: 430: while (RA5==1){
  2271  0660  2EB4               	goto	l4279
  2272                           	
  2273  0661                     l1061:	
  2274                           	line	431
  2275                           	
  2276  0661                     l4259:	
  2277                           ;proga.c: 431: if (n==100)
  2278  0661  3064               	movlw	064h
  2279  0662  0634               	xorwf	(_n),w
  2280  0663  0435               	iorwf	(_n+1),w
  2281  0664  1D03               	skipz
  2282  0665  2E67               	goto	u3961
  2283  0666  2E68               	goto	u3960
  2284  0667                     u3961:
  2285  0667  2EA2               	goto	l4277
  2286  0668                     u3960:
  2287                           	line	433
  2288                           	
  2289  0668                     l4261:	
  2290                           ;proga.c: 432: {
  2291                           ;proga.c: 433: if (x==3) goto end;
  2292  0668  3003               	movlw	03h
  2293  0669  067B               	xorwf	(_x),w
  2294  066A  047C               	iorwf	(_x+1),w
  2295  066B  1D03               	skipz
  2296  066C  2E6E               	goto	u3971
  2297  066D  2E6F               	goto	u3970
  2298  066E                     u3971:
  2299  066E  2E71               	goto	l4265
  2300  066F                     u3970:
  2301  066F  2FD1               	goto	l4347
  2302                           	
  2303  0670                     l4263:	
  2304  0670  2FD1               	goto	l4347
  2305                           	
  2306  0671                     l1063:	
  2307                           	line	434
  2308                           	
  2309  0671                     l4265:	
  2310                           ;proga.c: 434: if (x==0) goto end;
  2311  0671  087C               	movf	((_x+1)),w
  2312  0672  047B               	iorwf	((_x)),w
  2313  0673  1D03               	skipz
  2314  0674  2E76               	goto	u3981
  2315  0675  2E77               	goto	u3980
  2316  0676                     u3981:
  2317  0676  2E79               	goto	l4269
  2318  0677                     u3980:
  2319  0677  2FD1               	goto	l4347
  2320                           	
  2321  0678                     l4267:	
  2322  0678  2FD1               	goto	l4347
  2323                           	
  2324  0679                     l1064:	
  2325                           	line	435
  2326                           	
  2327  0679                     l4269:	
  2328                           ;proga.c: 435: if (x<5){
  2329  0679  087C               	movf	(_x+1),w
  2330  067A  3A80               	xorlw	80h
  2331  067B  00FF               	movwf	btemp+1
  2332  067C  3080               	movlw	(high(05h))^80h
  2333  067D  027F               	subwf	btemp+1,w
  2334  067E  1D03               	skipz
  2335  067F  2E82               	goto	u3995
  2336  0680  3005               	movlw	low(05h)
  2337  0681  027B               	subwf	(_x),w
  2338  0682                     u3995:
  2339                           
  2340  0682  1803               	skipnc
  2341  0683  2E85               	goto	u3991
  2342  0684  2E86               	goto	u3990
  2343  0685                     u3991:
  2344  0685  2FD1               	goto	l4347
  2345  0686                     u3990:
  2346                           	line	436
  2347                           	
  2348  0686                     l4271:	
  2349                           ;proga.c: 436: LCDWrite(55, 1);
  2350  0686  3037               	movlw	low(037h)
  2351  0687  00F0               	movwf	(?_LCDWrite)
  2352  0688  3000               	movlw	high(037h)
  2353  0689  00F1               	movwf	((?_LCDWrite))+1
  2354  068A  3001               	movlw	low(01h)
  2355  068B  00F2               	movwf	0+(?_LCDWrite)+02h
  2356  068C  3000               	movlw	high(01h)
  2357  068D  00F3               	movwf	(0+(?_LCDWrite)+02h)+1
  2358  068E  118A  2132  118A   	fcall	_LCDWrite
  2359                           	line	437
  2360                           	
  2361  0691                     l4273:	
  2362                           ;proga.c: 437: x++;
  2363  0691  3001               	movlw	low(01h)
  2364  0692  07FB               	addwf	(_x),f
  2365  0693  1803               	skipnc
  2366  0694  0AFC               	incf	(_x+1),f
  2367  0695  3000               	movlw	high(01h)
  2368  0696  07FC               	addwf	(_x+1),f
  2369                           	line	438
  2370                           	
  2371  0697                     l4275:	
  2372                           ;proga.c: 438: mas[x]=55;
  2373  0697  3037               	movlw	(037h)
  2374  0698  00F8               	movwf	(??_main+0)+0
  2375  0699  087B               	movf	(_x),w
  2376  069A  3E20               	addlw	_mas&0ffh
  2377  069B  0084               	movwf	fsr0
  2378  069C  0878               	movf	(??_main+0)+0,w
  2379  069D  1383               	bcf	status, 7	;select IRP bank0
  2380  069E  0080               	movwf	indf
  2381                           	line	439
  2382                           ;proga.c: 439: }
  2383  069F  2EA2               	goto	l4277
  2384                           	line	440
  2385                           	
  2386  06A0                     l1065:	
  2387                           ;proga.c: 440: else goto end;
  2388  06A0  2FD1               	goto	l4347
  2389                           	
  2390  06A1                     l1066:	
  2391  06A1  2EA2               	goto	l4277
  2392                           	line	441
  2393                           	
  2394  06A2                     l1062:	
  2395                           	line	442
  2396                           	
  2397  06A2                     l4277:	
  2398                           ;proga.c: 441: }
  2399                           ;proga.c: 442: _delay((unsigned long)((2)*(4000000/4000.0)));
  2400                           	opt asmopt_off
  2401  06A2  3003               movlw	3
  2402  06A3  00F9               movwf	((??_main+0)+0+1),f
  2403  06A4  3097               	movlw	151
  2404  06A5  00F8               movwf	((??_main+0)+0),f
  2405  06A6                     u4307:
  2406  06A6  0BF8               	decfsz	((??_main+0)+0),f
  2407  06A7  2EA6               	goto	u4307
  2408  06A8  0BF9               	decfsz	((??_main+0)+0+1),f
  2409  06A9  2EA6               	goto	u4307
  2410  06AA  2EAB               	nop2
  2411                           opt asmopt_on
  2412                           
  2413                           	line	443
  2414                           ;proga.c: 443: n++;
  2415  06AB  3001               	movlw	low(01h)
  2416  06AC  1283               	bcf	status, 5	;RP0=0, select bank0
  2417  06AD  1303               	bcf	status, 6	;RP1=0, select bank0
  2418  06AE  07B4               	addwf	(_n),f
  2419  06AF  1803               	skipnc
  2420  06B0  0AB5               	incf	(_n+1),f
  2421  06B1  3000               	movlw	high(01h)
  2422  06B2  07B5               	addwf	(_n+1),f
  2423  06B3  2EB4               	goto	l4279
  2424                           	line	444
  2425                           	
  2426  06B4                     l1060:	
  2427                           	line	430
  2428                           	
  2429  06B4                     l4279:	
  2430  06B4  1A85               	btfsc	(45/8),(45)&7
  2431  06B5  2EB7               	goto	u4001
  2432  06B6  2EB8               	goto	u4000
  2433  06B7                     u4001:
  2434  06B7  2E61               	goto	l4259
  2435  06B8                     u4000:
  2436  06B8  2EBA               	goto	l4281
  2437                           	
  2438  06B9                     l1067:	
  2439  06B9  2EBA               	goto	l4281
  2440                           	line	444
  2441                           	
  2442  06BA                     l1059:	
  2443                           	line	446
  2444                           	
  2445  06BA                     l4281:	
  2446                           ;proga.c: 444: }}
  2447                           ;proga.c: 446: _delay((unsigned long)((5)*(4000000/4000.0)));
  2448                           	opt asmopt_off
  2449  06BA  3007               movlw	7
  2450  06BB  00F9               movwf	((??_main+0)+0+1),f
  2451  06BC  307D               	movlw	125
  2452  06BD  00F8               movwf	((??_main+0)+0),f
  2453  06BE                     u4317:
  2454  06BE  0BF8               	decfsz	((??_main+0)+0),f
  2455  06BF  2EBE               	goto	u4317
  2456  06C0  0BF9               	decfsz	((??_main+0)+0+1),f
  2457  06C1  2EBE               	goto	u4317
  2458                           opt asmopt_on
  2459                           
  2460                           	line	448
  2461                           ;proga.c: 448: TRISA=0b11111111;
  2462  06C2  30FF               	movlw	(0FFh)
  2463  06C3  1683               	bsf	status, 5	;RP0=1, select bank1
  2464  06C4  1303               	bcf	status, 6	;RP1=0, select bank1
  2465  06C5  0085               	movwf	(133)^080h	;volatile
  2466                           	line	449
  2467                           	
  2468  06C6                     l4283:	
  2469                           ;proga.c: 449: TRISB=0b00000000;
  2470  06C6  0186               	clrf	(134)^080h	;volatile
  2471                           	line	450
  2472                           	
  2473  06C7                     l4285:	
  2474                           ;proga.c: 450: RB4=1;
  2475  06C7  1283               	bcf	status, 5	;RP0=0, select bank0
  2476  06C8  1303               	bcf	status, 6	;RP1=0, select bank0
  2477  06C9  1606               	bsf	(52/8),(52)&7
  2478                           	line	452
  2479                           	
  2480  06CA                     l4287:	
  2481                           ;proga.c: 452: _delay((unsigned long)((5)*(4000000/4000.0)));
  2482                           	opt asmopt_off
  2483  06CA  3007               movlw	7
  2484  06CB  00F9               movwf	((??_main+0)+0+1),f
  2485  06CC  307D               	movlw	125
  2486  06CD  00F8               movwf	((??_main+0)+0),f
  2487  06CE                     u4327:
  2488  06CE  0BF8               	decfsz	((??_main+0)+0),f
  2489  06CF  2ECE               	goto	u4327
  2490  06D0  0BF9               	decfsz	((??_main+0)+0+1),f
  2491  06D1  2ECE               	goto	u4327
  2492                           opt asmopt_on
  2493                           
  2494                           	line	454
  2495                           	
  2496  06D2                     l4289:	
  2497                           ;proga.c: 454: if (RA0==1){
  2498  06D2  1283               	bcf	status, 5	;RP0=0, select bank0
  2499  06D3  1303               	bcf	status, 6	;RP1=0, select bank0
  2500  06D4  1C05               	btfss	(40/8),(40)&7
  2501  06D5  2ED7               	goto	u4011
  2502  06D6  2ED8               	goto	u4010
  2503  06D7                     u4011:
  2504  06D7  2F22               	goto	l1068
  2505  06D8                     u4010:
  2506                           	line	455
  2507                           	
  2508  06D8                     l4291:	
  2509                           ;proga.c: 455: n=0;
  2510  06D8  01B4               	clrf	(_n)
  2511  06D9  01B5               	clrf	(_n+1)
  2512                           	line	456
  2513                           ;proga.c: 456: while (RA0==1){
  2514  06DA  2F1D               	goto	l4305
  2515                           	
  2516  06DB                     l1070:	
  2517                           	line	457
  2518                           	
  2519  06DB                     l4293:	
  2520                           ;proga.c: 457: if (n==100)
  2521  06DB  3064               	movlw	064h
  2522  06DC  0634               	xorwf	(_n),w
  2523  06DD  0435               	iorwf	(_n+1),w
  2524  06DE  1D03               	skipz
  2525  06DF  2EE1               	goto	u4021
  2526  06E0  2EE2               	goto	u4020
  2527  06E1                     u4021:
  2528  06E1  2F0B               	goto	l4303
  2529  06E2                     u4020:
  2530                           	line	459
  2531                           	
  2532  06E2                     l4295:	
  2533                           ;proga.c: 458: {
  2534                           ;proga.c: 459: if (x<5){
  2535  06E2  087C               	movf	(_x+1),w
  2536  06E3  3A80               	xorlw	80h
  2537  06E4  00FF               	movwf	btemp+1
  2538  06E5  3080               	movlw	(high(05h))^80h
  2539  06E6  027F               	subwf	btemp+1,w
  2540  06E7  1D03               	skipz
  2541  06E8  2EEB               	goto	u4035
  2542  06E9  3005               	movlw	low(05h)
  2543  06EA  027B               	subwf	(_x),w
  2544  06EB                     u4035:
  2545                           
  2546  06EB  1803               	skipnc
  2547  06EC  2EEE               	goto	u4031
  2548  06ED  2EEF               	goto	u4030
  2549  06EE                     u4031:
  2550  06EE  2FD1               	goto	l4347
  2551  06EF                     u4030:
  2552                           	line	460
  2553                           	
  2554  06EF                     l4297:	
  2555                           ;proga.c: 460: LCDWrite(53, 1);
  2556  06EF  3035               	movlw	low(035h)
  2557  06F0  00F0               	movwf	(?_LCDWrite)
  2558  06F1  3000               	movlw	high(035h)
  2559  06F2  00F1               	movwf	((?_LCDWrite))+1
  2560  06F3  3001               	movlw	low(01h)
  2561  06F4  00F2               	movwf	0+(?_LCDWrite)+02h
  2562  06F5  3000               	movlw	high(01h)
  2563  06F6  00F3               	movwf	(0+(?_LCDWrite)+02h)+1
  2564  06F7  118A  2132  118A   	fcall	_LCDWrite
  2565                           	line	461
  2566                           	
  2567  06FA                     l4299:	
  2568                           ;proga.c: 461: x++;
  2569  06FA  3001               	movlw	low(01h)
  2570  06FB  07FB               	addwf	(_x),f
  2571  06FC  1803               	skipnc
  2572  06FD  0AFC               	incf	(_x+1),f
  2573  06FE  3000               	movlw	high(01h)
  2574  06FF  07FC               	addwf	(_x+1),f
  2575                           	line	462
  2576                           	
  2577  0700                     l4301:	
  2578                           ;proga.c: 462: mas[x]=53;
  2579  0700  3035               	movlw	(035h)
  2580  0701  00F8               	movwf	(??_main+0)+0
  2581  0702  087B               	movf	(_x),w
  2582  0703  3E20               	addlw	_mas&0ffh
  2583  0704  0084               	movwf	fsr0
  2584  0705  0878               	movf	(??_main+0)+0,w
  2585  0706  1383               	bcf	status, 7	;select IRP bank0
  2586  0707  0080               	movwf	indf
  2587                           	line	463
  2588                           ;proga.c: 463: }
  2589  0708  2F0B               	goto	l4303
  2590                           	line	464
  2591                           	
  2592  0709                     l1072:	
  2593                           ;proga.c: 464: else goto end;
  2594  0709  2FD1               	goto	l4347
  2595                           	
  2596  070A                     l1073:	
  2597  070A  2F0B               	goto	l4303
  2598                           	line	465
  2599                           	
  2600  070B                     l1071:	
  2601                           	line	466
  2602                           	
  2603  070B                     l4303:	
  2604                           ;proga.c: 465: }
  2605                           ;proga.c: 466: _delay((unsigned long)((2)*(4000000/4000.0)));
  2606                           	opt asmopt_off
  2607  070B  3003               movlw	3
  2608  070C  00F9               movwf	((??_main+0)+0+1),f
  2609  070D  3097               	movlw	151
  2610  070E  00F8               movwf	((??_main+0)+0),f
  2611  070F                     u4337:
  2612  070F  0BF8               	decfsz	((??_main+0)+0),f
  2613  0710  2F0F               	goto	u4337
  2614  0711  0BF9               	decfsz	((??_main+0)+0+1),f
  2615  0712  2F0F               	goto	u4337
  2616  0713  2F14               	nop2
  2617                           opt asmopt_on
  2618                           
  2619                           	line	467
  2620                           ;proga.c: 467: n++;
  2621  0714  3001               	movlw	low(01h)
  2622  0715  1283               	bcf	status, 5	;RP0=0, select bank0
  2623  0716  1303               	bcf	status, 6	;RP1=0, select bank0
  2624  0717  07B4               	addwf	(_n),f
  2625  0718  1803               	skipnc
  2626  0719  0AB5               	incf	(_n+1),f
  2627  071A  3000               	movlw	high(01h)
  2628  071B  07B5               	addwf	(_n+1),f
  2629  071C  2F1D               	goto	l4305
  2630                           	line	468
  2631                           	
  2632  071D                     l1069:	
  2633                           	line	456
  2634                           	
  2635  071D                     l4305:	
  2636  071D  1805               	btfsc	(40/8),(40)&7
  2637  071E  2F20               	goto	u4041
  2638  071F  2F21               	goto	u4040
  2639  0720                     u4041:
  2640  0720  2EDB               	goto	l4293
  2641  0721                     u4040:
  2642  0721  2F22               	goto	l1068
  2643                           	
  2644  0722                     l1074:	
  2645                           	line	468
  2646                           	
  2647  0722                     l1068:	
  2648                           	line	470
  2649                           ;proga.c: 468: }}
  2650                           ;proga.c: 470: if (RA4==1){
  2651  0722  1E05               	btfss	(44/8),(44)&7
  2652  0723  2F25               	goto	u4051
  2653  0724  2F26               	goto	u4050
  2654  0725                     u4051:
  2655  0725  2F81               	goto	l1075
  2656  0726                     u4050:
  2657                           	line	471
  2658                           	
  2659  0726                     l4307:	
  2660                           ;proga.c: 471: n=0;
  2661  0726  01B4               	clrf	(_n)
  2662  0727  01B5               	clrf	(_n+1)
  2663                           	line	472
  2664                           ;proga.c: 472: while (RA4==1){
  2665  0728  2F7C               	goto	l4329
  2666                           	
  2667  0729                     l1077:	
  2668                           	line	473
  2669                           	
  2670  0729                     l4309:	
  2671                           ;proga.c: 473: if (n==100)
  2672  0729  3064               	movlw	064h
  2673  072A  0634               	xorwf	(_n),w
  2674  072B  0435               	iorwf	(_n+1),w
  2675  072C  1D03               	skipz
  2676  072D  2F2F               	goto	u4061
  2677  072E  2F30               	goto	u4060
  2678  072F                     u4061:
  2679  072F  2F6A               	goto	l4327
  2680  0730                     u4060:
  2681                           	line	475
  2682                           	
  2683  0730                     l4311:	
  2684                           ;proga.c: 474: {
  2685                           ;proga.c: 475: if (x==3) goto end;
  2686  0730  3003               	movlw	03h
  2687  0731  067B               	xorwf	(_x),w
  2688  0732  047C               	iorwf	(_x+1),w
  2689  0733  1D03               	skipz
  2690  0734  2F36               	goto	u4071
  2691  0735  2F37               	goto	u4070
  2692  0736                     u4071:
  2693  0736  2F39               	goto	l4315
  2694  0737                     u4070:
  2695  0737  2FD1               	goto	l4347
  2696                           	
  2697  0738                     l4313:	
  2698  0738  2FD1               	goto	l4347
  2699                           	
  2700  0739                     l1079:	
  2701                           	line	476
  2702                           	
  2703  0739                     l4315:	
  2704                           ;proga.c: 476: if (x==0) goto end;
  2705  0739  087C               	movf	((_x+1)),w
  2706  073A  047B               	iorwf	((_x)),w
  2707  073B  1D03               	skipz
  2708  073C  2F3E               	goto	u4081
  2709  073D  2F3F               	goto	u4080
  2710  073E                     u4081:
  2711  073E  2F41               	goto	l4319
  2712  073F                     u4080:
  2713  073F  2FD1               	goto	l4347
  2714                           	
  2715  0740                     l4317:	
  2716  0740  2FD1               	goto	l4347
  2717                           	
  2718  0741                     l1080:	
  2719                           	line	477
  2720                           	
  2721  0741                     l4319:	
  2722                           ;proga.c: 477: if (x<5){
  2723  0741  087C               	movf	(_x+1),w
  2724  0742  3A80               	xorlw	80h
  2725  0743  00FF               	movwf	btemp+1
  2726  0744  3080               	movlw	(high(05h))^80h
  2727  0745  027F               	subwf	btemp+1,w
  2728  0746  1D03               	skipz
  2729  0747  2F4A               	goto	u4095
  2730  0748  3005               	movlw	low(05h)
  2731  0749  027B               	subwf	(_x),w
  2732  074A                     u4095:
  2733                           
  2734  074A  1803               	skipnc
  2735  074B  2F4D               	goto	u4091
  2736  074C  2F4E               	goto	u4090
  2737  074D                     u4091:
  2738  074D  2FD1               	goto	l4347
  2739  074E                     u4090:
  2740                           	line	478
  2741                           	
  2742  074E                     l4321:	
  2743                           ;proga.c: 478: LCDWrite(54, 1);
  2744  074E  3036               	movlw	low(036h)
  2745  074F  00F0               	movwf	(?_LCDWrite)
  2746  0750  3000               	movlw	high(036h)
  2747  0751  00F1               	movwf	((?_LCDWrite))+1
  2748  0752  3001               	movlw	low(01h)
  2749  0753  00F2               	movwf	0+(?_LCDWrite)+02h
  2750  0754  3000               	movlw	high(01h)
  2751  0755  00F3               	movwf	(0+(?_LCDWrite)+02h)+1
  2752  0756  118A  2132  118A   	fcall	_LCDWrite
  2753                           	line	479
  2754                           	
  2755  0759                     l4323:	
  2756                           ;proga.c: 479: x++;
  2757  0759  3001               	movlw	low(01h)
  2758  075A  07FB               	addwf	(_x),f
  2759  075B  1803               	skipnc
  2760  075C  0AFC               	incf	(_x+1),f
  2761  075D  3000               	movlw	high(01h)
  2762  075E  07FC               	addwf	(_x+1),f
  2763                           	line	480
  2764                           	
  2765  075F                     l4325:	
  2766                           ;proga.c: 480: mas[x]=54;
  2767  075F  3036               	movlw	(036h)
  2768  0760  00F8               	movwf	(??_main+0)+0
  2769  0761  087B               	movf	(_x),w
  2770  0762  3E20               	addlw	_mas&0ffh
  2771  0763  0084               	movwf	fsr0
  2772  0764  0878               	movf	(??_main+0)+0,w
  2773  0765  1383               	bcf	status, 7	;select IRP bank0
  2774  0766  0080               	movwf	indf
  2775                           	line	481
  2776                           ;proga.c: 481: }
  2777  0767  2F6A               	goto	l4327
  2778                           	line	482
  2779                           	
  2780  0768                     l1081:	
  2781                           ;proga.c: 482: else goto end;
  2782  0768  2FD1               	goto	l4347
  2783                           	
  2784  0769                     l1082:	
  2785  0769  2F6A               	goto	l4327
  2786                           	line	483
  2787                           	
  2788  076A                     l1078:	
  2789                           	line	484
  2790                           	
  2791  076A                     l4327:	
  2792                           ;proga.c: 483: }
  2793                           ;proga.c: 484: _delay((unsigned long)((2)*(4000000/4000.0)));
  2794                           	opt asmopt_off
  2795  076A  3003               movlw	3
  2796  076B  00F9               movwf	((??_main+0)+0+1),f
  2797  076C  3097               	movlw	151
  2798  076D  00F8               movwf	((??_main+0)+0),f
  2799  076E                     u4347:
  2800  076E  0BF8               	decfsz	((??_main+0)+0),f
  2801  076F  2F6E               	goto	u4347
  2802  0770  0BF9               	decfsz	((??_main+0)+0+1),f
  2803  0771  2F6E               	goto	u4347
  2804  0772  2F73               	nop2
  2805                           opt asmopt_on
  2806                           
  2807                           	line	485
  2808                           ;proga.c: 485: n++;
  2809  0773  3001               	movlw	low(01h)
  2810  0774  1283               	bcf	status, 5	;RP0=0, select bank0
  2811  0775  1303               	bcf	status, 6	;RP1=0, select bank0
  2812  0776  07B4               	addwf	(_n),f
  2813  0777  1803               	skipnc
  2814  0778  0AB5               	incf	(_n+1),f
  2815  0779  3000               	movlw	high(01h)
  2816  077A  07B5               	addwf	(_n+1),f
  2817  077B  2F7C               	goto	l4329
  2818                           	line	486
  2819                           	
  2820  077C                     l1076:	
  2821                           	line	472
  2822                           	
  2823  077C                     l4329:	
  2824  077C  1A05               	btfsc	(44/8),(44)&7
  2825  077D  2F7F               	goto	u4101
  2826  077E  2F80               	goto	u4100
  2827  077F                     u4101:
  2828  077F  2F29               	goto	l4309
  2829  0780                     u4100:
  2830  0780  2F81               	goto	l1075
  2831                           	
  2832  0781                     l1083:	
  2833                           	line	486
  2834                           	
  2835  0781                     l1075:	
  2836                           	line	488
  2837                           ;proga.c: 486: }}
  2838                           ;proga.c: 488: if (RA2==1){
  2839  0781  1D05               	btfss	(42/8),(42)&7
  2840  0782  2F84               	goto	u4111
  2841  0783  2F85               	goto	u4110
  2842  0784                     u4111:
  2843  0784  2FCF               	goto	l1084
  2844  0785                     u4110:
  2845                           	line	489
  2846                           	
  2847  0785                     l4331:	
  2848                           ;proga.c: 489: n=0;
  2849  0785  01B4               	clrf	(_n)
  2850  0786  01B5               	clrf	(_n+1)
  2851                           	line	490
  2852                           ;proga.c: 490: while (RA2==1){
  2853  0787  2FCA               	goto	l4345
  2854                           	
  2855  0788                     l1086:	
  2856                           	line	491
  2857                           	
  2858  0788                     l4333:	
  2859                           ;proga.c: 491: if (n==100)
  2860  0788  3064               	movlw	064h
  2861  0789  0634               	xorwf	(_n),w
  2862  078A  0435               	iorwf	(_n+1),w
  2863  078B  1D03               	skipz
  2864  078C  2F8E               	goto	u4121
  2865  078D  2F8F               	goto	u4120
  2866  078E                     u4121:
  2867  078E  2FB8               	goto	l4343
  2868  078F                     u4120:
  2869                           	line	493
  2870                           	
  2871  078F                     l4335:	
  2872                           ;proga.c: 492: {
  2873                           ;proga.c: 493: if (x<5){
  2874  078F  087C               	movf	(_x+1),w
  2875  0790  3A80               	xorlw	80h
  2876  0791  00FF               	movwf	btemp+1
  2877  0792  3080               	movlw	(high(05h))^80h
  2878  0793  027F               	subwf	btemp+1,w
  2879  0794  1D03               	skipz
  2880  0795  2F98               	goto	u4135
  2881  0796  3005               	movlw	low(05h)
  2882  0797  027B               	subwf	(_x),w
  2883  0798                     u4135:
  2884                           
  2885  0798  1803               	skipnc
  2886  0799  2F9B               	goto	u4131
  2887  079A  2F9C               	goto	u4130
  2888  079B                     u4131:
  2889  079B  2FD1               	goto	l4347
  2890  079C                     u4130:
  2891                           	line	494
  2892                           	
  2893  079C                     l4337:	
  2894                           ;proga.c: 494: LCDWrite(52, 1);
  2895  079C  3034               	movlw	low(034h)
  2896  079D  00F0               	movwf	(?_LCDWrite)
  2897  079E  3000               	movlw	high(034h)
  2898  079F  00F1               	movwf	((?_LCDWrite))+1
  2899  07A0  3001               	movlw	low(01h)
  2900  07A1  00F2               	movwf	0+(?_LCDWrite)+02h
  2901  07A2  3000               	movlw	high(01h)
  2902  07A3  00F3               	movwf	(0+(?_LCDWrite)+02h)+1
  2903  07A4  118A  2132  118A   	fcall	_LCDWrite
  2904                           	line	495
  2905                           	
  2906  07A7                     l4339:	
  2907                           ;proga.c: 495: x++;
  2908  07A7  3001               	movlw	low(01h)
  2909  07A8  07FB               	addwf	(_x),f
  2910  07A9  1803               	skipnc
  2911  07AA  0AFC               	incf	(_x+1),f
  2912  07AB  3000               	movlw	high(01h)
  2913  07AC  07FC               	addwf	(_x+1),f
  2914                           	line	496
  2915                           	
  2916  07AD                     l4341:	
  2917                           ;proga.c: 496: mas[x]=52;
  2918  07AD  3034               	movlw	(034h)
  2919  07AE  00F8               	movwf	(??_main+0)+0
  2920  07AF  087B               	movf	(_x),w
  2921  07B0  3E20               	addlw	_mas&0ffh
  2922  07B1  0084               	movwf	fsr0
  2923  07B2  0878               	movf	(??_main+0)+0,w
  2924  07B3  1383               	bcf	status, 7	;select IRP bank0
  2925  07B4  0080               	movwf	indf
  2926                           	line	497
  2927                           ;proga.c: 497: }
  2928  07B5  2FB8               	goto	l4343
  2929                           	line	498
  2930                           	
  2931  07B6                     l1088:	
  2932                           ;proga.c: 498: else goto end;
  2933  07B6  2FD1               	goto	l4347
  2934                           	
  2935  07B7                     l1089:	
  2936  07B7  2FB8               	goto	l4343
  2937                           	line	499
  2938                           	
  2939  07B8                     l1087:	
  2940                           	line	500
  2941                           	
  2942  07B8                     l4343:	
  2943                           ;proga.c: 499: }
  2944                           ;proga.c: 500: _delay((unsigned long)((2)*(4000000/4000.0)));
  2945                           	opt asmopt_off
  2946  07B8  3003               movlw	3
  2947  07B9  00F9               movwf	((??_main+0)+0+1),f
  2948  07BA  3097               	movlw	151
  2949  07BB  00F8               movwf	((??_main+0)+0),f
  2950  07BC                     u4357:
  2951  07BC  0BF8               	decfsz	((??_main+0)+0),f
  2952  07BD  2FBC               	goto	u4357
  2953  07BE  0BF9               	decfsz	((??_main+0)+0+1),f
  2954  07BF  2FBC               	goto	u4357
  2955  07C0  2FC1               	nop2
  2956                           opt asmopt_on
  2957                           
  2958                           	line	501
  2959                           ;proga.c: 501: n++;
  2960  07C1  3001               	movlw	low(01h)
  2961  07C2  1283               	bcf	status, 5	;RP0=0, select bank0
  2962  07C3  1303               	bcf	status, 6	;RP1=0, select bank0
  2963  07C4  07B4               	addwf	(_n),f
  2964  07C5  1803               	skipnc
  2965  07C6  0AB5               	incf	(_n+1),f
  2966  07C7  3000               	movlw	high(01h)
  2967  07C8  07B5               	addwf	(_n+1),f
  2968  07C9  2FCA               	goto	l4345
  2969                           	line	502
  2970                           	
  2971  07CA                     l1085:	
  2972                           	line	490
  2973                           	
  2974  07CA                     l4345:	
  2975  07CA  1905               	btfsc	(42/8),(42)&7
  2976  07CB  2FCD               	goto	u4141
  2977  07CC  2FCE               	goto	u4140
  2978  07CD                     u4141:
  2979  07CD  2F88               	goto	l4333
  2980  07CE                     u4140:
  2981  07CE  2FCF               	goto	l1084
  2982                           	
  2983  07CF                     l1090:	
  2984                           	line	502
  2985                           	
  2986  07CF                     l1084:	
  2987                           	line	505
  2988                           ;proga.c: 502: }}
  2989                           ;proga.c: 505: if (RA1==1) {
  2990  07CF  2FD1               	goto	l4347
  2991                           	line	507
  2992                           	
  2993  07D0                     l1091:	
  2994  07D0  2FD1               	goto	l4347
  2995                           	line	525
  2996                           ;proga.c: 507: }
  2997                           ;proga.c: 525: end :;
  2998                           	
  2999  07D1                     l997:	
  3000                           	line	526
  3001                           	
  3002  07D1                     l4347:	
  3003                           ;proga.c: 526: if (x==2){
  3004  07D1  3002               	movlw	02h
  3005  07D2  067B               	xorwf	(_x),w
  3006  07D3  047C               	iorwf	(_x+1),w
  3007  07D4  1D03               	skipz
  3008  07D5  2FD7               	goto	u4151
  3009  07D6  2FD8               	goto	u4150
  3010  07D7                     u4151:
  3011  07D7  2FF2               	goto	l4355
  3012  07D8                     u4150:
  3013                           	line	527
  3014                           	
  3015  07D8                     l4349:	
  3016                           ;proga.c: 527: LCDWrite('-', 1);
  3017  07D8  302D               	movlw	low(02Dh)
  3018  07D9  00F0               	movwf	(?_LCDWrite)
  3019  07DA  3000               	movlw	high(02Dh)
  3020  07DB  00F1               	movwf	((?_LCDWrite))+1
  3021  07DC  3001               	movlw	low(01h)
  3022  07DD  00F2               	movwf	0+(?_LCDWrite)+02h
  3023  07DE  3000               	movlw	high(01h)
  3024  07DF  00F3               	movwf	(0+(?_LCDWrite)+02h)+1
  3025  07E0  118A  2132  118A   	fcall	_LCDWrite
  3026                           	line	528
  3027                           	
  3028  07E3                     l4351:	
  3029                           ;proga.c: 528: x++;
  3030  07E3  3001               	movlw	low(01h)
  3031  07E4  07FB               	addwf	(_x),f
  3032  07E5  1803               	skipnc
  3033  07E6  0AFC               	incf	(_x+1),f
  3034  07E7  3000               	movlw	high(01h)
  3035  07E8  07FC               	addwf	(_x+1),f
  3036                           	line	529
  3037                           	
  3038  07E9                     l4353:	
  3039                           ;proga.c: 529: mas[x]='-';
  3040  07E9  302D               	movlw	(02Dh)
  3041  07EA  00F8               	movwf	(??_main+0)+0
  3042  07EB  087B               	movf	(_x),w
  3043  07EC  3E20               	addlw	_mas&0ffh
  3044  07ED  0084               	movwf	fsr0
  3045  07EE  0878               	movf	(??_main+0)+0,w
  3046  07EF  1383               	bcf	status, 7	;select IRP bank0
  3047  07F0  0080               	movwf	indf
  3048  07F1  2FF2               	goto	l4355
  3049                           	line	530
  3050                           	
  3051  07F2                     l1092:	
  3052                           	line	531
  3053                           	
  3054  07F2                     l4355:	
  3055                           ;proga.c: 530: }
  3056                           ;proga.c: 531: _delay((unsigned long)((5)*(4000000/4000.0)));
  3057                           	opt asmopt_off
  3058  07F2  3007               movlw	7
  3059  07F3  00F9               movwf	((??_main+0)+0+1),f
  3060  07F4  307D               	movlw	125
  3061  07F5  00F8               movwf	((??_main+0)+0),f
  3062  07F6                     u4367:
  3063  07F6  0BF8               	decfsz	((??_main+0)+0),f
  3064  07F7  2FF6               	goto	u4367
  3065  07F8  0BF9               	decfsz	((??_main+0)+0+1),f
  3066  07F9  2FF6               	goto	u4367
  3067                           opt asmopt_on
  3068                           
  3069                           	line	532
  3070                           	
  3071  07FA                     l4357:	
  3072                           ;proga.c: 532: RB4=0;
  3073  07FA  1283               	bcf	status, 5	;RP0=0, select bank0
  3074  07FB  1303               	bcf	status, 6	;RP1=0, select bank0
  3075  07FC  1206               	bcf	(52/8),(52)&7
  3076                           	line	536
  3077                           ;proga.c: 536: }
  3078  07FD  2AB9               	goto	l4037
  3079                           	
  3080  07FE                     l1093:	
  3081                           	line	545
  3082                           	
  3083  07FE                     l1094:	
  3084                           	global	start
  3085  07FE  118A  2800         	ljmp	start
  3086                           	opt stack 0
  3087                           GLOBAL	__end_of_main
  3088  0800                     	__end_of_main:
  3089 ;; =============== function _main ends ============
  3090                           
  3091                           	signat	_main,90
  3092                           	global	_Increment
  3093                           psect	text257,local,class=CODE,delta=2
  3094                           global __ptext257
  3095  0D53                     __ptext257:
  3096                           
  3097 ;; *************** function _Increment *****************
  3098 ;; Defined at:
  3099 ;;		line 30 in file "C:\Users\gf\Desktop\photoresist\project\proga.c"
  3100 ;; Parameters:    Size  Location     Type
  3101 ;;		None
  3102 ;; Auto vars:     Size  Location     Type
  3103 ;;		None
  3104 ;; Return value:  Size  Location     Type
  3105 ;;                  2  933[COMMON] int 
  3106 ;; Registers used:
  3107 ;;		wreg, fsr0l, fsr0h, status,2, status,0, btemp+1, pclath, cstack
  3108 ;; Tracked objects:
  3109 ;;		On entry : 0/0
  3110 ;;		On exit  : 0/0
  3111 ;;		Unchanged: 0/0
  3112 ;; Data sizes:     COMMON   BANK0   BANK1   BANK2
  3113 ;;      Params:         0       0       0       0
  3114 ;;      Locals:         0       0       0       0
  3115 ;;      Temps:          2       0       0       0
  3116 ;;      Totals:         2       0       0       0
  3117 ;;Total ram usage:        2 bytes
  3118 ;; Hardware stack levels used:    1
  3119 ;; Hardware stack levels required when called:    2
  3120 ;; This function calls:
  3121 ;;		_buzz1
  3122 ;;		_LCDWrite
  3123 ;;		_Message2
  3124 ;; This function is called by:
  3125 ;;		_main
  3126 ;; This function uses a non-reentrant model
  3127 ;;
  3128                           psect	text257
  3129                           	file	"C:\Users\gf\Desktop\photoresist\project\proga.c"
  3130                           	line	30
  3131                           	global	__size_of_Increment
  3132  02AD                     	__size_of_Increment	equ	__end_of_Increment-_Increment
  3133                           	
  3134  0D53                     _Increment:	
  3135                           	opt	stack 5
  3136                           ; Regs used in _Increment: [wreg-fsr0h+status,2+status,0+btemp+1+pclath+cstack]
  3137                           	line	31
  3138                           ;proga.c: 31: for(;;){
  3139                           	
  3140  0D53                     l934:	
  3141                           	line	33
  3142                           	
  3143  0D53                     l3859:	
  3144                           ;proga.c: 33: TRISA=0b11101111;
  3145  0D53  30EF               	movlw	(0EFh)
  3146  0D54  1683               	bsf	status, 5	;RP0=1, select bank1
  3147  0D55  1303               	bcf	status, 6	;RP1=0, select bank1
  3148  0D56  0085               	movwf	(133)^080h	;volatile
  3149                           	line	34
  3150                           	
  3151  0D57                     l3861:	
  3152                           ;proga.c: 34: RB4=0;
  3153  0D57  1283               	bcf	status, 5	;RP0=0, select bank0
  3154  0D58  1303               	bcf	status, 6	;RP1=0, select bank0
  3155  0D59  1206               	bcf	(52/8),(52)&7
  3156                           	line	35
  3157                           ;proga.c: 35: PORTA=0b00010000;
  3158  0D5A  3010               	movlw	(010h)
  3159  0D5B  0085               	movwf	(5)	;volatile
  3160                           	line	37
  3161                           	
  3162  0D5C                     l3863:	
  3163                           ;proga.c: 37: if (RA3==1){
  3164  0D5C  1D85               	btfss	(43/8),(43)&7
  3165  0D5D  2D5F               	goto	u3301
  3166  0D5E  2D60               	goto	u3300
  3167  0D5F                     u3301:
  3168  0D5F  2EEA               	goto	l3961
  3169  0D60                     u3300:
  3170                           	line	38
  3171                           	
  3172  0D60                     l3865:	
  3173                           ;proga.c: 38: n=0;
  3174  0D60  01B4               	clrf	(_n)
  3175  0D61  01B5               	clrf	(_n+1)
  3176                           	line	39
  3177                           ;proga.c: 39: while (RA3==1){
  3178  0D62  2EE3               	goto	l3959
  3179                           	
  3180  0D63                     l937:	
  3181                           	line	40
  3182                           	
  3183  0D63                     l3867:	
  3184                           ;proga.c: 40: if (n==100)
  3185  0D63  3064               	movlw	064h
  3186  0D64  0634               	xorwf	(_n),w
  3187  0D65  0435               	iorwf	(_n+1),w
  3188  0D66  1D03               	skipz
  3189  0D67  2D69               	goto	u3311
  3190  0D68  2D6A               	goto	u3310
  3191  0D69                     u3311:
  3192  0D69  2ED1               	goto	l3957
  3193  0D6A                     u3310:
  3194  0D6A  2D6B               	goto	l3869
  3195                           	line	42
  3196                           ;proga.c: 41: {
  3197                           ;proga.c: 42: resume:;
  3198                           	
  3199  0D6B                     l939:	
  3200                           	line	43
  3201                           	
  3202  0D6B                     l3869:	
  3203                           ;proga.c: 43: buzz1();
  3204  0D6B  118A  21D8  158A   	fcall	_buzz1
  3205                           	line	44
  3206                           ;proga.c: 44: buzz1();
  3207  0D6E  118A  21D8  158A   	fcall	_buzz1
  3208                           	line	45
  3209                           	
  3210  0D71                     l3871:	
  3211                           ;proga.c: 45: if (flag==2){
  3212  0D71  1283               	bcf	status, 5	;RP0=0, select bank0
  3213  0D72  1303               	bcf	status, 6	;RP1=0, select bank0
  3214  0D73  083C               	movf	(_flag),w
  3215  0D74  3A02               	xorlw	02h
  3216  0D75  1D03               	skipz
  3217  0D76  2D78               	goto	u3321
  3218  0D77  2D79               	goto	u3320
  3219  0D78                     u3321:
  3220  0D78  2D7F               	goto	l3879
  3221  0D79                     u3320:
  3222                           	line	46
  3223                           	
  3224  0D79                     l3873:	
  3225                           ;proga.c: 46: flag=1;
  3226  0D79  01BC               	clrf	(_flag)
  3227  0D7A  1403               	bsf	status,0
  3228  0D7B  0DBC               	rlf	(_flag),f
  3229                           	line	47
  3230                           	
  3231  0D7C                     l3875:	
  3232                           ;proga.c: 47: RB6=1;
  3233  0D7C  1706               	bsf	(54/8),(54)&7
  3234                           	line	48
  3235                           	
  3236  0D7D                     l3877:	
  3237                           ;proga.c: 48: RB7=1;
  3238  0D7D  1786               	bsf	(55/8),(55)&7
  3239                           	line	49
  3240                           ;proga.c: 49: goto otschet;
  3241  0D7E  2EEA               	goto	l3961
  3242                           	line	50
  3243                           	
  3244  0D7F                     l940:	
  3245                           	line	52
  3246                           	
  3247  0D7F                     l3879:	
  3248                           ;proga.c: 50: }
  3249                           ;proga.c: 52: if (flag==1){
  3250  0D7F  083C               	movf	(_flag),w
  3251  0D80  3A01               	xorlw	01h
  3252  0D81  1D03               	skipz
  3253  0D82  2D84               	goto	u3331
  3254  0D83  2D85               	goto	u3330
  3255  0D84                     u3331:
  3256  0D84  2ED1               	goto	l3957
  3257  0D85                     u3330:
  3258                           	line	53
  3259                           	
  3260  0D85                     l3881:	
  3261                           ;proga.c: 53: flag=2;
  3262  0D85  3002               	movlw	(02h)
  3263  0D86  00F6               	movwf	(??_Increment+0)+0
  3264  0D87  0876               	movf	(??_Increment+0)+0,w
  3265  0D88  00BC               	movwf	(_flag)
  3266                           	line	54
  3267                           	
  3268  0D89                     l3883:	
  3269                           ;proga.c: 54: RB6=0;
  3270  0D89  1306               	bcf	(54/8),(54)&7
  3271                           	line	55
  3272                           	
  3273  0D8A                     l3885:	
  3274                           ;proga.c: 55: RB7=0;
  3275  0D8A  1386               	bcf	(55/8),(55)&7
  3276                           	line	56
  3277                           	
  3278  0D8B                     l3887:	
  3279                           ;proga.c: 56: LCDWrite(1, 0);
  3280  0D8B  3001               	movlw	low(01h)
  3281  0D8C  00F0               	movwf	(?_LCDWrite)
  3282  0D8D  3000               	movlw	high(01h)
  3283  0D8E  00F1               	movwf	((?_LCDWrite))+1
  3284  0D8F  3000               	movlw	low(0)
  3285  0D90  00F2               	movwf	0+(?_LCDWrite)+02h
  3286  0D91  3000               	movlw	high(0)
  3287  0D92  00F3               	movwf	(0+(?_LCDWrite)+02h)+1
  3288  0D93  118A  2132  158A   	fcall	_LCDWrite
  3289                           	line	57
  3290                           	
  3291  0D96                     l3889:	
  3292                           ;proga.c: 57: LCDWrite(' ', 1);
  3293  0D96  3020               	movlw	low(020h)
  3294  0D97  00F0               	movwf	(?_LCDWrite)
  3295  0D98  3000               	movlw	high(020h)
  3296  0D99  00F1               	movwf	((?_LCDWrite))+1
  3297  0D9A  3001               	movlw	low(01h)
  3298  0D9B  00F2               	movwf	0+(?_LCDWrite)+02h
  3299  0D9C  3000               	movlw	high(01h)
  3300  0D9D  00F3               	movwf	(0+(?_LCDWrite)+02h)+1
  3301  0D9E  118A  2132  158A   	fcall	_LCDWrite
  3302                           	line	58
  3303                           	
  3304  0DA1                     l3891:	
  3305                           ;proga.c: 58: LCDWrite(' ', 1);
  3306  0DA1  3020               	movlw	low(020h)
  3307  0DA2  00F0               	movwf	(?_LCDWrite)
  3308  0DA3  3000               	movlw	high(020h)
  3309  0DA4  00F1               	movwf	((?_LCDWrite))+1
  3310  0DA5  3001               	movlw	low(01h)
  3311  0DA6  00F2               	movwf	0+(?_LCDWrite)+02h
  3312  0DA7  3000               	movlw	high(01h)
  3313  0DA8  00F3               	movwf	(0+(?_LCDWrite)+02h)+1
  3314  0DA9  118A  2132  158A   	fcall	_LCDWrite
  3315                           	line	59
  3316                           	
  3317  0DAC                     l3893:	
  3318                           ;proga.c: 59: for(j=1;j<6;j++){
  3319  0DAC  3001               	movlw	low(01h)
  3320  0DAD  1283               	bcf	status, 5	;RP0=0, select bank0
  3321  0DAE  1303               	bcf	status, 6	;RP1=0, select bank0
  3322  0DAF  00B2               	movwf	(_j)
  3323  0DB0  3000               	movlw	high(01h)
  3324  0DB1  00B3               	movwf	((_j))+1
  3325                           	
  3326  0DB2                     l3895:	
  3327  0DB2  0833               	movf	(_j+1),w
  3328  0DB3  3A80               	xorlw	80h
  3329  0DB4  00FF               	movwf	btemp+1
  3330  0DB5  3080               	movlw	(high(06h))^80h
  3331  0DB6  027F               	subwf	btemp+1,w
  3332  0DB7  1D03               	skipz
  3333  0DB8  2DBB               	goto	u3345
  3334  0DB9  3006               	movlw	low(06h)
  3335  0DBA  0232               	subwf	(_j),w
  3336  0DBB                     u3345:
  3337                           
  3338  0DBB  1C03               	skipc
  3339  0DBC  2DBE               	goto	u3341
  3340  0DBD  2DBF               	goto	u3340
  3341  0DBE                     u3341:
  3342  0DBE  2DC1               	goto	l3899
  3343  0DBF                     u3340:
  3344  0DBF  2DF1               	goto	l3907
  3345                           	
  3346  0DC0                     l3897:	
  3347  0DC0  2DF1               	goto	l3907
  3348                           	
  3349  0DC1                     l943:	
  3350                           	line	60
  3351                           	
  3352  0DC1                     l3899:	
  3353                           ;proga.c: 60: n=mas2[j];
  3354  0DC1  1283               	bcf	status, 5	;RP0=0, select bank0
  3355  0DC2  1303               	bcf	status, 6	;RP1=0, select bank0
  3356  0DC3  0832               	movf	(_j),w
  3357  0DC4  3E26               	addlw	_mas2&0ffh
  3358  0DC5  0084               	movwf	fsr0
  3359  0DC6  1383               	bcf	status, 7	;select IRP bank0
  3360  0DC7  0800               	movf	indf,w
  3361  0DC8  00F6               	movwf	(??_Increment+0)+0
  3362  0DC9  01F7               	clrf	(??_Increment+0)+0+1
  3363  0DCA  0876               	movf	0+(??_Increment+0)+0,w
  3364  0DCB  00B4               	movwf	(_n)
  3365  0DCC  0877               	movf	1+(??_Increment+0)+0,w
  3366  0DCD  00B5               	movwf	(_n+1)
  3367                           	line	61
  3368                           	
  3369  0DCE                     l3901:	
  3370                           ;proga.c: 61: LCDWrite(n, 1);
  3371  0DCE  0835               	movf	(_n+1),w
  3372  0DCF  01F1               	clrf	(?_LCDWrite+1)
  3373  0DD0  07F1               	addwf	(?_LCDWrite+1)
  3374  0DD1  0834               	movf	(_n),w
  3375  0DD2  01F0               	clrf	(?_LCDWrite)
  3376  0DD3  07F0               	addwf	(?_LCDWrite)
  3377                           
  3378  0DD4  3001               	movlw	low(01h)
  3379  0DD5  00F2               	movwf	0+(?_LCDWrite)+02h
  3380  0DD6  3000               	movlw	high(01h)
  3381  0DD7  00F3               	movwf	(0+(?_LCDWrite)+02h)+1
  3382  0DD8  118A  2132  158A   	fcall	_LCDWrite
  3383                           	line	59
  3384                           	
  3385  0DDB                     l3903:	
  3386  0DDB  3001               	movlw	low(01h)
  3387  0DDC  1283               	bcf	status, 5	;RP0=0, select bank0
  3388  0DDD  1303               	bcf	status, 6	;RP1=0, select bank0
  3389  0DDE  07B2               	addwf	(_j),f
  3390  0DDF  1803               	skipnc
  3391  0DE0  0AB3               	incf	(_j+1),f
  3392  0DE1  3000               	movlw	high(01h)
  3393  0DE2  07B3               	addwf	(_j+1),f
  3394                           	
  3395  0DE3                     l3905:	
  3396  0DE3  0833               	movf	(_j+1),w
  3397  0DE4  3A80               	xorlw	80h
  3398  0DE5  00FF               	movwf	btemp+1
  3399  0DE6  3080               	movlw	(high(06h))^80h
  3400  0DE7  027F               	subwf	btemp+1,w
  3401  0DE8  1D03               	skipz
  3402  0DE9  2DEC               	goto	u3355
  3403  0DEA  3006               	movlw	low(06h)
  3404  0DEB  0232               	subwf	(_j),w
  3405  0DEC                     u3355:
  3406                           
  3407  0DEC  1C03               	skipc
  3408  0DED  2DEF               	goto	u3351
  3409  0DEE  2DF0               	goto	u3350
  3410  0DEF                     u3351:
  3411  0DEF  2DC1               	goto	l3899
  3412  0DF0                     u3350:
  3413  0DF0  2DF1               	goto	l3907
  3414                           	
  3415  0DF1                     l944:	
  3416                           	line	63
  3417                           	
  3418  0DF1                     l3907:	
  3419                           ;proga.c: 62: }
  3420                           ;proga.c: 63: LCDWrite(192, 0);
  3421  0DF1  30C0               	movlw	low(0C0h)
  3422  0DF2  00F0               	movwf	(?_LCDWrite)
  3423  0DF3  3000               	movlw	high(0C0h)
  3424  0DF4  00F1               	movwf	((?_LCDWrite))+1
  3425  0DF5  3000               	movlw	low(0)
  3426  0DF6  00F2               	movwf	0+(?_LCDWrite)+02h
  3427  0DF7  3000               	movlw	high(0)
  3428  0DF8  00F3               	movwf	(0+(?_LCDWrite)+02h)+1
  3429  0DF9  118A  2132  158A   	fcall	_LCDWrite
  3430                           	line	64
  3431                           ;proga.c: 64: LCDWrite('>', 1);
  3432  0DFC  303E               	movlw	low(03Eh)
  3433  0DFD  00F0               	movwf	(?_LCDWrite)
  3434  0DFE  3000               	movlw	high(03Eh)
  3435  0DFF  00F1               	movwf	((?_LCDWrite))+1
  3436  0E00  3001               	movlw	low(01h)
  3437  0E01  00F2               	movwf	0+(?_LCDWrite)+02h
  3438  0E02  3000               	movlw	high(01h)
  3439  0E03  00F3               	movwf	(0+(?_LCDWrite)+02h)+1
  3440  0E04  118A  2132  158A   	fcall	_LCDWrite
  3441                           	line	65
  3442                           ;proga.c: 65: LCDWrite(' ', 1);
  3443  0E07  3020               	movlw	low(020h)
  3444  0E08  00F0               	movwf	(?_LCDWrite)
  3445  0E09  3000               	movlw	high(020h)
  3446  0E0A  00F1               	movwf	((?_LCDWrite))+1
  3447  0E0B  3001               	movlw	low(01h)
  3448  0E0C  00F2               	movwf	0+(?_LCDWrite)+02h
  3449  0E0D  3000               	movlw	high(01h)
  3450  0E0E  00F3               	movwf	(0+(?_LCDWrite)+02h)+1
  3451  0E0F  118A  2132  158A   	fcall	_LCDWrite
  3452                           	line	66
  3453                           	
  3454  0E12                     l3909:	
  3455                           ;proga.c: 66: for(j=1;j<6;j++){
  3456  0E12  3001               	movlw	low(01h)
  3457  0E13  1283               	bcf	status, 5	;RP0=0, select bank0
  3458  0E14  1303               	bcf	status, 6	;RP1=0, select bank0
  3459  0E15  00B2               	movwf	(_j)
  3460  0E16  3000               	movlw	high(01h)
  3461  0E17  00B3               	movwf	((_j))+1
  3462                           	
  3463  0E18                     l3911:	
  3464  0E18  0833               	movf	(_j+1),w
  3465  0E19  3A80               	xorlw	80h
  3466  0E1A  00FF               	movwf	btemp+1
  3467  0E1B  3080               	movlw	(high(06h))^80h
  3468  0E1C  027F               	subwf	btemp+1,w
  3469  0E1D  1D03               	skipz
  3470  0E1E  2E21               	goto	u3365
  3471  0E1F  3006               	movlw	low(06h)
  3472  0E20  0232               	subwf	(_j),w
  3473  0E21                     u3365:
  3474                           
  3475  0E21  1C03               	skipc
  3476  0E22  2E24               	goto	u3361
  3477  0E23  2E25               	goto	u3360
  3478  0E24                     u3361:
  3479  0E24  2E27               	goto	l3915
  3480  0E25                     u3360:
  3481  0E25  2E58               	goto	l3923
  3482                           	
  3483  0E26                     l3913:	
  3484  0E26  2E58               	goto	l3923
  3485                           	
  3486  0E27                     l945:	
  3487                           	line	67
  3488                           	
  3489  0E27                     l3915:	
  3490                           ;proga.c: 67: n=mas3[j]+48;
  3491  0E27  1283               	bcf	status, 5	;RP0=0, select bank0
  3492  0E28  1303               	bcf	status, 6	;RP1=0, select bank0
  3493  0E29  0832               	movf	(_j),w
  3494  0E2A  3E2C               	addlw	_mas3&0ffh
  3495  0E2B  0084               	movwf	fsr0
  3496  0E2C  1383               	bcf	status, 7	;select IRP bank0
  3497  0E2D  0800               	movf	indf,w
  3498  0E2E  3E30               	addlw	low(030h)
  3499  0E2F  00B4               	movwf	(_n)
  3500  0E30  3000               	movlw	high(030h)
  3501  0E31  1803               	skipnc
  3502  0E32  3001               	movlw	(high(030h)+1)&0ffh
  3503  0E33  00B5               	movwf	((_n))+1
  3504                           	line	68
  3505                           	
  3506  0E34                     l3917:	
  3507                           ;proga.c: 68: LCDWrite(n, 1);
  3508  0E34  0835               	movf	(_n+1),w
  3509  0E35  01F1               	clrf	(?_LCDWrite+1)
  3510  0E36  07F1               	addwf	(?_LCDWrite+1)
  3511  0E37  0834               	movf	(_n),w
  3512  0E38  01F0               	clrf	(?_LCDWrite)
  3513  0E39  07F0               	addwf	(?_LCDWrite)
  3514                           
  3515  0E3A  3001               	movlw	low(01h)
  3516  0E3B  00F2               	movwf	0+(?_LCDWrite)+02h
  3517  0E3C  3000               	movlw	high(01h)
  3518  0E3D  00F3               	movwf	(0+(?_LCDWrite)+02h)+1
  3519  0E3E  118A  2132  158A   	fcall	_LCDWrite
  3520                           	line	66
  3521                           	
  3522  0E41                     l3919:	
  3523  0E41  3001               	movlw	low(01h)
  3524  0E42  1283               	bcf	status, 5	;RP0=0, select bank0
  3525  0E43  1303               	bcf	status, 6	;RP1=0, select bank0
  3526  0E44  07B2               	addwf	(_j),f
  3527  0E45  1803               	skipnc
  3528  0E46  0AB3               	incf	(_j+1),f
  3529  0E47  3000               	movlw	high(01h)
  3530  0E48  07B3               	addwf	(_j+1),f
  3531                           	
  3532  0E49                     l3921:	
  3533  0E49  0833               	movf	(_j+1),w
  3534  0E4A  3A80               	xorlw	80h
  3535  0E4B  00FF               	movwf	btemp+1
  3536  0E4C  3080               	movlw	(high(06h))^80h
  3537  0E4D  027F               	subwf	btemp+1,w
  3538  0E4E  1D03               	skipz
  3539  0E4F  2E52               	goto	u3375
  3540  0E50  3006               	movlw	low(06h)
  3541  0E51  0232               	subwf	(_j),w
  3542  0E52                     u3375:
  3543                           
  3544  0E52  1C03               	skipc
  3545  0E53  2E55               	goto	u3371
  3546  0E54  2E56               	goto	u3370
  3547  0E55                     u3371:
  3548  0E55  2E27               	goto	l3915
  3549  0E56                     u3370:
  3550  0E56  2E58               	goto	l3923
  3551                           	
  3552  0E57                     l946:	
  3553  0E57  2E58               	goto	l3923
  3554                           	line	71
  3555                           ;proga.c: 69: }
  3556                           ;proga.c: 71: for(;;){
  3557                           	
  3558  0E58                     l947:	
  3559                           	line	72
  3560                           	
  3561  0E58                     l3923:	
  3562                           ;proga.c: 72: _delay((unsigned long)((5)*(4000000/4000.0)));
  3563                           	opt asmopt_off
  3564  0E58  3007               movlw	7
  3565  0E59  00F7               movwf	((??_Increment+0)+0+1),f
  3566  0E5A  307D               	movlw	125
  3567  0E5B  00F6               movwf	((??_Increment+0)+0),f
  3568  0E5C                     u4377:
  3569  0E5C  0BF6               	decfsz	((??_Increment+0)+0),f
  3570  0E5D  2E5C               	goto	u4377
  3571  0E5E  0BF7               	decfsz	((??_Increment+0)+0+1),f
  3572  0E5F  2E5C               	goto	u4377
  3573                           opt asmopt_on
  3574                           
  3575                           	line	73
  3576                           	
  3577  0E60                     l3925:	
  3578                           ;proga.c: 73: if (RA3==1){
  3579  0E60  1283               	bcf	status, 5	;RP0=0, select bank0
  3580  0E61  1303               	bcf	status, 6	;RP1=0, select bank0
  3581  0E62  1D85               	btfss	(43/8),(43)&7
  3582  0E63  2E65               	goto	u3381
  3583  0E64  2E66               	goto	u3380
  3584  0E65                     u3381:
  3585  0E65  2E8A               	goto	l3937
  3586  0E66                     u3380:
  3587                           	line	74
  3588                           	
  3589  0E66                     l3927:	
  3590                           ;proga.c: 74: n=0;
  3591  0E66  01B4               	clrf	(_n)
  3592  0E67  01B5               	clrf	(_n+1)
  3593                           	line	75
  3594                           ;proga.c: 75: while (RA3==1){
  3595  0E68  2E84               	goto	l3935
  3596                           	
  3597  0E69                     l950:	
  3598                           	line	76
  3599                           	
  3600  0E69                     l3929:	
  3601                           ;proga.c: 76: if (n==100)
  3602  0E69  3064               	movlw	064h
  3603  0E6A  0634               	xorwf	(_n),w
  3604  0E6B  0435               	iorwf	(_n+1),w
  3605  0E6C  1D03               	skipz
  3606  0E6D  2E6F               	goto	u3391
  3607  0E6E  2E70               	goto	u3390
  3608  0E6F                     u3391:
  3609  0E6F  2E72               	goto	l3933
  3610  0E70                     u3390:
  3611  0E70  2D6B               	goto	l3869
  3612                           	line	78
  3613                           	
  3614  0E71                     l3931:	
  3615                           ;proga.c: 77: {
  3616                           ;proga.c: 78: goto resume;
  3617  0E71  2D6B               	goto	l3869
  3618                           	line	79
  3619                           	
  3620  0E72                     l951:	
  3621                           	line	80
  3622                           	
  3623  0E72                     l3933:	
  3624                           ;proga.c: 79: }
  3625                           ;proga.c: 80: _delay((unsigned long)((2)*(4000000/4000.0)));
  3626                           	opt asmopt_off
  3627  0E72  3003               movlw	3
  3628  0E73  00F7               movwf	((??_Increment+0)+0+1),f
  3629  0E74  3097               	movlw	151
  3630  0E75  00F6               movwf	((??_Increment+0)+0),f
  3631  0E76                     u4387:
  3632  0E76  0BF6               	decfsz	((??_Increment+0)+0),f
  3633  0E77  2E76               	goto	u4387
  3634  0E78  0BF7               	decfsz	((??_Increment+0)+0+1),f
  3635  0E79  2E76               	goto	u4387
  3636  0E7A  2E7B               	nop2
  3637                           opt asmopt_on
  3638                           
  3639                           	line	81
  3640                           ;proga.c: 81: n++;
  3641  0E7B  3001               	movlw	low(01h)
  3642  0E7C  1283               	bcf	status, 5	;RP0=0, select bank0
  3643  0E7D  1303               	bcf	status, 6	;RP1=0, select bank0
  3644  0E7E  07B4               	addwf	(_n),f
  3645  0E7F  1803               	skipnc
  3646  0E80  0AB5               	incf	(_n+1),f
  3647  0E81  3000               	movlw	high(01h)
  3648  0E82  07B5               	addwf	(_n+1),f
  3649  0E83  2E84               	goto	l3935
  3650                           	line	82
  3651                           	
  3652  0E84                     l949:	
  3653                           	line	75
  3654                           	
  3655  0E84                     l3935:	
  3656  0E84  1985               	btfsc	(43/8),(43)&7
  3657  0E85  2E87               	goto	u3401
  3658  0E86  2E88               	goto	u3400
  3659  0E87                     u3401:
  3660  0E87  2E69               	goto	l3929
  3661  0E88                     u3400:
  3662  0E88  2E8A               	goto	l3937
  3663                           	
  3664  0E89                     l952:	
  3665  0E89  2E8A               	goto	l3937
  3666                           	line	82
  3667                           	
  3668  0E8A                     l948:	
  3669                           	line	85
  3670                           	
  3671  0E8A                     l3937:	
  3672                           ;proga.c: 82: }}
  3673                           ;proga.c: 85: TRISA=0b11111011;
  3674  0E8A  30FB               	movlw	(0FBh)
  3675  0E8B  1683               	bsf	status, 5	;RP0=1, select bank1
  3676  0E8C  1303               	bcf	status, 6	;RP1=0, select bank1
  3677  0E8D  0085               	movwf	(133)^080h	;volatile
  3678                           	line	86
  3679                           	
  3680  0E8E                     l3939:	
  3681                           ;proga.c: 86: RB4=0;
  3682  0E8E  1283               	bcf	status, 5	;RP0=0, select bank0
  3683  0E8F  1303               	bcf	status, 6	;RP1=0, select bank0
  3684  0E90  1206               	bcf	(52/8),(52)&7
  3685                           	line	87
  3686                           ;proga.c: 87: PORTA=0b00000100;
  3687  0E91  3004               	movlw	(04h)
  3688  0E92  0085               	movwf	(5)	;volatile
  3689                           	line	89
  3690                           ;proga.c: 89: _delay((unsigned long)((5)*(4000000/4000.0)));
  3691                           	opt asmopt_off
  3692  0E93  3007               movlw	7
  3693  0E94  00F7               movwf	((??_Increment+0)+0+1),f
  3694  0E95  307D               	movlw	125
  3695  0E96  00F6               movwf	((??_Increment+0)+0),f
  3696  0E97                     u4397:
  3697  0E97  0BF6               	decfsz	((??_Increment+0)+0),f
  3698  0E98  2E97               	goto	u4397
  3699  0E99  0BF7               	decfsz	((??_Increment+0)+0+1),f
  3700  0E9A  2E97               	goto	u4397
  3701                           opt asmopt_on
  3702                           
  3703                           	line	91
  3704                           	
  3705  0E9B                     l3941:	
  3706                           ;proga.c: 91: if (RA3==1){
  3707  0E9B  1283               	bcf	status, 5	;RP0=0, select bank0
  3708  0E9C  1303               	bcf	status, 6	;RP1=0, select bank0
  3709  0E9D  1D85               	btfss	(43/8),(43)&7
  3710  0E9E  2EA0               	goto	u3411
  3711  0E9F  2EA1               	goto	u3410
  3712  0EA0                     u3411:
  3713  0EA0  2EC5               	goto	l3953
  3714  0EA1                     u3410:
  3715                           	line	92
  3716                           	
  3717  0EA1                     l3943:	
  3718                           ;proga.c: 92: n=0;
  3719  0EA1  01B4               	clrf	(_n)
  3720  0EA2  01B5               	clrf	(_n+1)
  3721                           	line	93
  3722                           ;proga.c: 93: while (RA3==1){
  3723  0EA3  2EBF               	goto	l3951
  3724                           	
  3725  0EA4                     l955:	
  3726                           	line	94
  3727                           	
  3728  0EA4                     l3945:	
  3729                           ;proga.c: 94: if (n==100)
  3730  0EA4  3064               	movlw	064h
  3731  0EA5  0634               	xorwf	(_n),w
  3732  0EA6  0435               	iorwf	(_n+1),w
  3733  0EA7  1D03               	skipz
  3734  0EA8  2EAA               	goto	u3421
  3735  0EA9  2EAB               	goto	u3420
  3736  0EAA                     u3421:
  3737  0EAA  2EAD               	goto	l3949
  3738  0EAB                     u3420:
  3739  0EAB  2FFF               	goto	l970
  3740                           	line	97
  3741                           	
  3742  0EAC                     l3947:	
  3743                           ;proga.c: 95: {
  3744                           ;proga.c: 97: goto end;
  3745  0EAC  2FFF               	goto	l970
  3746                           	line	98
  3747                           	
  3748  0EAD                     l956:	
  3749                           	line	99
  3750                           	
  3751  0EAD                     l3949:	
  3752                           ;proga.c: 98: }
  3753                           ;proga.c: 99: _delay((unsigned long)((2)*(4000000/4000.0)));
  3754                           	opt asmopt_off
  3755  0EAD  3003               movlw	3
  3756  0EAE  00F7               movwf	((??_Increment+0)+0+1),f
  3757  0EAF  3097               	movlw	151
  3758  0EB0  00F6               movwf	((??_Increment+0)+0),f
  3759  0EB1                     u4407:
  3760  0EB1  0BF6               	decfsz	((??_Increment+0)+0),f
  3761  0EB2  2EB1               	goto	u4407
  3762  0EB3  0BF7               	decfsz	((??_Increment+0)+0+1),f
  3763  0EB4  2EB1               	goto	u4407
  3764  0EB5  2EB6               	nop2
  3765                           opt asmopt_on
  3766                           
  3767                           	line	100
  3768                           ;proga.c: 100: n++;
  3769  0EB6  3001               	movlw	low(01h)
  3770  0EB7  1283               	bcf	status, 5	;RP0=0, select bank0
  3771  0EB8  1303               	bcf	status, 6	;RP1=0, select bank0
  3772  0EB9  07B4               	addwf	(_n),f
  3773  0EBA  1803               	skipnc
  3774  0EBB  0AB5               	incf	(_n+1),f
  3775  0EBC  3000               	movlw	high(01h)
  3776  0EBD  07B5               	addwf	(_n+1),f
  3777  0EBE  2EBF               	goto	l3951
  3778                           	line	101
  3779                           	
  3780  0EBF                     l954:	
  3781                           	line	93
  3782                           	
  3783  0EBF                     l3951:	
  3784  0EBF  1985               	btfsc	(43/8),(43)&7
  3785  0EC0  2EC2               	goto	u3431
  3786  0EC1  2EC3               	goto	u3430
  3787  0EC2                     u3431:
  3788  0EC2  2EA4               	goto	l3945
  3789  0EC3                     u3430:
  3790  0EC3  2EC5               	goto	l3953
  3791                           	
  3792  0EC4                     l958:	
  3793  0EC4  2EC5               	goto	l3953
  3794                           	line	101
  3795                           	
  3796  0EC5                     l953:	
  3797                           	line	103
  3798                           	
  3799  0EC5                     l3953:	
  3800                           ;proga.c: 101: }}
  3801                           ;proga.c: 103: TRISA=0b11101111;
  3802  0EC5  30EF               	movlw	(0EFh)
  3803  0EC6  1683               	bsf	status, 5	;RP0=1, select bank1
  3804  0EC7  1303               	bcf	status, 6	;RP1=0, select bank1
  3805  0EC8  0085               	movwf	(133)^080h	;volatile
  3806                           	line	104
  3807                           	
  3808  0EC9                     l3955:	
  3809                           ;proga.c: 104: RB4=0;
  3810  0EC9  1283               	bcf	status, 5	;RP0=0, select bank0
  3811  0ECA  1303               	bcf	status, 6	;RP1=0, select bank0
  3812  0ECB  1206               	bcf	(52/8),(52)&7
  3813                           	line	105
  3814                           ;proga.c: 105: PORTA=0b00010000;
  3815  0ECC  3010               	movlw	(010h)
  3816  0ECD  0085               	movwf	(5)	;volatile
  3817                           	line	107
  3818                           ;proga.c: 107: }
  3819  0ECE  2E58               	goto	l3923
  3820                           	
  3821  0ECF                     l959:	
  3822  0ECF  2ED1               	goto	l3957
  3823                           	line	108
  3824                           	
  3825  0ED0                     l942:	
  3826  0ED0  2ED1               	goto	l3957
  3827                           	line	109
  3828                           	
  3829  0ED1                     l938:	
  3830                           	line	110
  3831                           	
  3832  0ED1                     l3957:	
  3833                           ;proga.c: 108: }
  3834                           ;proga.c: 109: }
  3835                           ;proga.c: 110: _delay((unsigned long)((2)*(4000000/4000.0)));
  3836                           	opt asmopt_off
  3837  0ED1  3003               movlw	3
  3838  0ED2  00F7               movwf	((??_Increment+0)+0+1),f
  3839  0ED3  3097               	movlw	151
  3840  0ED4  00F6               movwf	((??_Increment+0)+0),f
  3841  0ED5                     u4417:
  3842  0ED5  0BF6               	decfsz	((??_Increment+0)+0),f
  3843  0ED6  2ED5               	goto	u4417
  3844  0ED7  0BF7               	decfsz	((??_Increment+0)+0+1),f
  3845  0ED8  2ED5               	goto	u4417
  3846  0ED9  2EDA               	nop2
  3847                           opt asmopt_on
  3848                           
  3849                           	line	111
  3850                           ;proga.c: 111: n++;
  3851  0EDA  3001               	movlw	low(01h)
  3852  0EDB  1283               	bcf	status, 5	;RP0=0, select bank0
  3853  0EDC  1303               	bcf	status, 6	;RP1=0, select bank0
  3854  0EDD  07B4               	addwf	(_n),f
  3855  0EDE  1803               	skipnc
  3856  0EDF  0AB5               	incf	(_n+1),f
  3857  0EE0  3000               	movlw	high(01h)
  3858  0EE1  07B5               	addwf	(_n+1),f
  3859  0EE2  2EE3               	goto	l3959
  3860                           	line	112
  3861                           	
  3862  0EE3                     l936:	
  3863                           	line	39
  3864                           	
  3865  0EE3                     l3959:	
  3866  0EE3  1985               	btfsc	(43/8),(43)&7
  3867  0EE4  2EE6               	goto	u3441
  3868  0EE5  2EE7               	goto	u3440
  3869  0EE6                     u3441:
  3870  0EE6  2D63               	goto	l3867
  3871  0EE7                     u3440:
  3872  0EE7  2EEA               	goto	l3961
  3873                           	
  3874  0EE8                     l960:	
  3875  0EE8  2EEA               	goto	l3961
  3876                           	line	112
  3877                           	
  3878  0EE9                     l935:	
  3879  0EE9  2EEA               	goto	l3961
  3880                           	line	115
  3881                           ;proga.c: 112: }}
  3882                           ;proga.c: 115: otschet:;
  3883                           	
  3884  0EEA                     l941:	
  3885                           	line	116
  3886                           	
  3887  0EEA                     l3961:	
  3888                           ;proga.c: 116: LCDWrite(1, 0);
  3889  0EEA  3001               	movlw	low(01h)
  3890  0EEB  00F0               	movwf	(?_LCDWrite)
  3891  0EEC  3000               	movlw	high(01h)
  3892  0EED  00F1               	movwf	((?_LCDWrite))+1
  3893  0EEE  3000               	movlw	low(0)
  3894  0EEF  00F2               	movwf	0+(?_LCDWrite)+02h
  3895  0EF0  3000               	movlw	high(0)
  3896  0EF1  00F3               	movwf	(0+(?_LCDWrite)+02h)+1
  3897  0EF2  118A  2132  158A   	fcall	_LCDWrite
  3898                           	line	117
  3899                           ;proga.c: 117: Message2();
  3900  0EF5  118A  217F  158A   	fcall	_Message2
  3901                           	line	118
  3902                           	
  3903  0EF8                     l3963:	
  3904                           ;proga.c: 118: if ((mas3[1]||mas3[2]||mas3[4]||mas3[5])==0){goto end;}
  3905  0EF8  1283               	bcf	status, 5	;RP0=0, select bank0
  3906  0EF9  1303               	bcf	status, 6	;RP1=0, select bank0
  3907  0EFA  08AD               	movf	0+(_mas3)+01h,f
  3908  0EFB  1D03               	skipz
  3909  0EFC  2EFE               	goto	u3451
  3910  0EFD  2EFF               	goto	u3450
  3911  0EFE                     u3451:
  3912  0EFE  2F10               	goto	l3973
  3913  0EFF                     u3450:
  3914                           	
  3915  0EFF                     l3965:	
  3916  0EFF  08AE               	movf	0+(_mas3)+02h,f
  3917  0F00  1D03               	skipz
  3918  0F01  2F03               	goto	u3461
  3919  0F02  2F04               	goto	u3460
  3920  0F03                     u3461:
  3921  0F03  2F10               	goto	l3973
  3922  0F04                     u3460:
  3923                           	
  3924  0F04                     l3967:	
  3925  0F04  08B0               	movf	0+(_mas3)+04h,f
  3926  0F05  1D03               	skipz
  3927  0F06  2F08               	goto	u3471
  3928  0F07  2F09               	goto	u3470
  3929  0F08                     u3471:
  3930  0F08  2F10               	goto	l3973
  3931  0F09                     u3470:
  3932                           	
  3933  0F09                     l3969:	
  3934  0F09  08B1               	movf	0+(_mas3)+05h,f
  3935  0F0A  1D03               	skipz
  3936  0F0B  2F0D               	goto	u3481
  3937  0F0C  2F0E               	goto	u3480
  3938  0F0D                     u3481:
  3939  0F0D  2F10               	goto	l3973
  3940  0F0E                     u3480:
  3941  0F0E  2FFF               	goto	l970
  3942                           	
  3943  0F0F                     l3971:	
  3944  0F0F  2FFF               	goto	l970
  3945                           	
  3946  0F10                     l961:	
  3947                           	line	120
  3948                           	
  3949  0F10                     l3973:	
  3950                           ;proga.c: 120: t4=mas3[5];
  3951  0F10  0831               	movf	0+(_mas3)+05h,w
  3952  0F11  00F6               	movwf	(??_Increment+0)+0
  3953  0F12  0876               	movf	(??_Increment+0)+0,w
  3954  0F13  00BF               	movwf	(_t4)
  3955                           	line	121
  3956                           ;proga.c: 121: if(t4>0)
  3957  0F14  083F               	movf	(_t4),w
  3958  0F15  1D03               	skipz
  3959  0F16  2F18               	goto	u3490
  3960  0F17  2F1F               	goto	l3979
  3961  0F18                     u3490:
  3962                           	line	123
  3963                           	
  3964  0F18                     l3975:	
  3965                           ;proga.c: 122: {
  3966                           ;proga.c: 123: t4--;
  3967  0F18  3001               	movlw	low(01h)
  3968  0F19  02BF               	subwf	(_t4),f
  3969                           	line	124
  3970                           	
  3971  0F1A                     l3977:	
  3972                           ;proga.c: 124: mas3[5]=t4;
  3973  0F1A  083F               	movf	(_t4),w
  3974  0F1B  00F6               	movwf	(??_Increment+0)+0
  3975  0F1C  0876               	movf	(??_Increment+0)+0,w
  3976  0F1D  00B1               	movwf	0+(_mas3)+05h
  3977                           	line	125
  3978                           ;proga.c: 125: }
  3979  0F1E  2F67               	goto	l3997
  3980                           	line	126
  3981                           	
  3982  0F1F                     l962:	
  3983                           	line	127
  3984                           	
  3985  0F1F                     l3979:	
  3986                           ;proga.c: 126: else{
  3987                           ;proga.c: 127: t4=9;
  3988  0F1F  3009               	movlw	(09h)
  3989  0F20  00F6               	movwf	(??_Increment+0)+0
  3990  0F21  0876               	movf	(??_Increment+0)+0,w
  3991  0F22  00BF               	movwf	(_t4)
  3992                           	line	128
  3993                           ;proga.c: 128: mas3[5]=t4;
  3994  0F23  083F               	movf	(_t4),w
  3995  0F24  00F6               	movwf	(??_Increment+0)+0
  3996  0F25  0876               	movf	(??_Increment+0)+0,w
  3997  0F26  00B1               	movwf	0+(_mas3)+05h
  3998                           	line	129
  3999                           ;proga.c: 129: t3=mas3[4];
  4000  0F27  0830               	movf	0+(_mas3)+04h,w
  4001  0F28  00F6               	movwf	(??_Increment+0)+0
  4002  0F29  0876               	movf	(??_Increment+0)+0,w
  4003  0F2A  00BE               	movwf	(_t3)
  4004                           	line	130
  4005                           ;proga.c: 130: if(t3>0){
  4006  0F2B  083E               	movf	(_t3),w
  4007  0F2C  1D03               	skipz
  4008  0F2D  2F2F               	goto	u3500
  4009  0F2E  2F36               	goto	l3985
  4010  0F2F                     u3500:
  4011                           	line	131
  4012                           	
  4013  0F2F                     l3981:	
  4014                           ;proga.c: 131: t3--;
  4015  0F2F  3001               	movlw	low(01h)
  4016  0F30  02BE               	subwf	(_t3),f
  4017                           	line	132
  4018                           	
  4019  0F31                     l3983:	
  4020                           ;proga.c: 132: mas3[4]=t3;
  4021  0F31  083E               	movf	(_t3),w
  4022  0F32  00F6               	movwf	(??_Increment+0)+0
  4023  0F33  0876               	movf	(??_Increment+0)+0,w
  4024  0F34  00B0               	movwf	0+(_mas3)+04h
  4025                           	line	133
  4026                           ;proga.c: 133: }
  4027  0F35  2F67               	goto	l3997
  4028                           	line	134
  4029                           	
  4030  0F36                     l964:	
  4031                           	line	135
  4032                           	
  4033  0F36                     l3985:	
  4034                           ;proga.c: 134: else{
  4035                           ;proga.c: 135: t3=5;
  4036  0F36  3005               	movlw	(05h)
  4037  0F37  00F6               	movwf	(??_Increment+0)+0
  4038  0F38  0876               	movf	(??_Increment+0)+0,w
  4039  0F39  00BE               	movwf	(_t3)
  4040                           	line	136
  4041                           ;proga.c: 136: mas3[4]=t3;
  4042  0F3A  083E               	movf	(_t3),w
  4043  0F3B  00F6               	movwf	(??_Increment+0)+0
  4044  0F3C  0876               	movf	(??_Increment+0)+0,w
  4045  0F3D  00B0               	movwf	0+(_mas3)+04h
  4046                           	line	137
  4047                           ;proga.c: 137: t2=mas3[2];
  4048  0F3E  082E               	movf	0+(_mas3)+02h,w
  4049  0F3F  00F6               	movwf	(??_Increment+0)+0
  4050  0F40  0876               	movf	(??_Increment+0)+0,w
  4051  0F41  00BD               	movwf	(_t2)
  4052                           	line	138
  4053                           ;proga.c: 138: if(t2>0){
  4054  0F42  083D               	movf	(_t2),w
  4055  0F43  1D03               	skipz
  4056  0F44  2F46               	goto	u3510
  4057  0F45  2F4D               	goto	l3991
  4058  0F46                     u3510:
  4059                           	line	139
  4060                           	
  4061  0F46                     l3987:	
  4062                           ;proga.c: 139: t2--;
  4063  0F46  3001               	movlw	low(01h)
  4064  0F47  02BD               	subwf	(_t2),f
  4065                           	line	140
  4066                           	
  4067  0F48                     l3989:	
  4068                           ;proga.c: 140: mas3[2]=t2;
  4069  0F48  083D               	movf	(_t2),w
  4070  0F49  00F6               	movwf	(??_Increment+0)+0
  4071  0F4A  0876               	movf	(??_Increment+0)+0,w
  4072  0F4B  00AE               	movwf	0+(_mas3)+02h
  4073                           	line	141
  4074                           ;proga.c: 141: }
  4075  0F4C  2F67               	goto	l3997
  4076                           	line	142
  4077                           	
  4078  0F4D                     l966:	
  4079                           	line	143
  4080                           	
  4081  0F4D                     l3991:	
  4082                           ;proga.c: 142: else{
  4083                           ;proga.c: 143: t2=9;
  4084  0F4D  3009               	movlw	(09h)
  4085  0F4E  00F6               	movwf	(??_Increment+0)+0
  4086  0F4F  0876               	movf	(??_Increment+0)+0,w
  4087  0F50  00BD               	movwf	(_t2)
  4088                           	line	144
  4089                           ;proga.c: 144: mas3[2]=t2;
  4090  0F51  083D               	movf	(_t2),w
  4091  0F52  00F6               	movwf	(??_Increment+0)+0
  4092  0F53  0876               	movf	(??_Increment+0)+0,w
  4093  0F54  00AE               	movwf	0+(_mas3)+02h
  4094                           	line	145
  4095                           ;proga.c: 145: t1=mas3[1];
  4096  0F55  082D               	movf	0+(_mas3)+01h,w
  4097  0F56  00F6               	movwf	(??_Increment+0)+0
  4098  0F57  0876               	movf	(??_Increment+0)+0,w
  4099  0F58  00FD               	movwf	(_t1)
  4100                           	line	146
  4101                           ;proga.c: 146: if(t1>0){
  4102  0F59  087D               	movf	(_t1),w
  4103  0F5A  1D03               	skipz
  4104  0F5B  2F5D               	goto	u3520
  4105  0F5C  2F67               	goto	l3997
  4106  0F5D                     u3520:
  4107                           	line	147
  4108                           	
  4109  0F5D                     l3993:	
  4110                           ;proga.c: 147: t1--;
  4111  0F5D  3001               	movlw	low(01h)
  4112  0F5E  02FD               	subwf	(_t1),f
  4113                           	line	148
  4114                           	
  4115  0F5F                     l3995:	
  4116                           ;proga.c: 148: mas3[1]=t1;
  4117  0F5F  087D               	movf	(_t1),w
  4118  0F60  00F6               	movwf	(??_Increment+0)+0
  4119  0F61  0876               	movf	(??_Increment+0)+0,w
  4120  0F62  00AD               	movwf	0+(_mas3)+01h
  4121  0F63  2F67               	goto	l3997
  4122                           	line	149
  4123                           	
  4124  0F64                     l968:	
  4125  0F64  2F67               	goto	l3997
  4126                           	
  4127  0F65                     l967:	
  4128  0F65  2F67               	goto	l3997
  4129                           	
  4130  0F66                     l965:	
  4131  0F66  2F67               	goto	l3997
  4132                           	
  4133  0F67                     l963:	
  4134                           	line	151
  4135                           	
  4136  0F67                     l3997:	
  4137                           ;proga.c: 149: }}}}
  4138                           ;proga.c: 151: t1=mas3[1]+48;
  4139  0F67  082D               	movf	0+(_mas3)+01h,w
  4140  0F68  3E30               	addlw	030h
  4141  0F69  00F6               	movwf	(??_Increment+0)+0
  4142  0F6A  0876               	movf	(??_Increment+0)+0,w
  4143  0F6B  00FD               	movwf	(_t1)
  4144                           	line	152
  4145                           	
  4146  0F6C                     l3999:	
  4147                           ;proga.c: 152: LCDWrite(t1, 1);
  4148  0F6C  087D               	movf	(_t1),w
  4149  0F6D  00F6               	movwf	(??_Increment+0)+0
  4150  0F6E  01F7               	clrf	(??_Increment+0)+0+1
  4151  0F6F  0876               	movf	0+(??_Increment+0)+0,w
  4152  0F70  00F0               	movwf	(?_LCDWrite)
  4153  0F71  0877               	movf	1+(??_Increment+0)+0,w
  4154  0F72  00F1               	movwf	(?_LCDWrite+1)
  4155  0F73  3001               	movlw	low(01h)
  4156  0F74  00F2               	movwf	0+(?_LCDWrite)+02h
  4157  0F75  3000               	movlw	high(01h)
  4158  0F76  00F3               	movwf	(0+(?_LCDWrite)+02h)+1
  4159  0F77  118A  2132  158A   	fcall	_LCDWrite
  4160                           	line	153
  4161                           	
  4162  0F7A                     l4001:	
  4163                           ;proga.c: 153: t1=mas3[2]+48;
  4164  0F7A  1283               	bcf	status, 5	;RP0=0, select bank0
  4165  0F7B  1303               	bcf	status, 6	;RP1=0, select bank0
  4166  0F7C  082E               	movf	0+(_mas3)+02h,w
  4167  0F7D  3E30               	addlw	030h
  4168  0F7E  00F6               	movwf	(??_Increment+0)+0
  4169  0F7F  0876               	movf	(??_Increment+0)+0,w
  4170  0F80  00FD               	movwf	(_t1)
  4171                           	line	154
  4172                           	
  4173  0F81                     l4003:	
  4174                           ;proga.c: 154: LCDWrite(t1, 1);
  4175  0F81  087D               	movf	(_t1),w
  4176  0F82  00F6               	movwf	(??_Increment+0)+0
  4177  0F83  01F7               	clrf	(??_Increment+0)+0+1
  4178  0F84  0876               	movf	0+(??_Increment+0)+0,w
  4179  0F85  00F0               	movwf	(?_LCDWrite)
  4180  0F86  0877               	movf	1+(??_Increment+0)+0,w
  4181  0F87  00F1               	movwf	(?_LCDWrite+1)
  4182  0F88  3001               	movlw	low(01h)
  4183  0F89  00F2               	movwf	0+(?_LCDWrite)+02h
  4184  0F8A  3000               	movlw	high(01h)
  4185  0F8B  00F3               	movwf	(0+(?_LCDWrite)+02h)+1
  4186  0F8C  118A  2132  158A   	fcall	_LCDWrite
  4187                           	line	155
  4188                           	
  4189  0F8F                     l4005:	
  4190                           ;proga.c: 155: LCDWrite('-', 1);
  4191  0F8F  302D               	movlw	low(02Dh)
  4192  0F90  00F0               	movwf	(?_LCDWrite)
  4193  0F91  3000               	movlw	high(02Dh)
  4194  0F92  00F1               	movwf	((?_LCDWrite))+1
  4195  0F93  3001               	movlw	low(01h)
  4196  0F94  00F2               	movwf	0+(?_LCDWrite)+02h
  4197  0F95  3000               	movlw	high(01h)
  4198  0F96  00F3               	movwf	(0+(?_LCDWrite)+02h)+1
  4199  0F97  118A  2132  158A   	fcall	_LCDWrite
  4200                           	line	156
  4201                           	
  4202  0F9A                     l4007:	
  4203                           ;proga.c: 156: t1=mas3[4]+48;
  4204  0F9A  1283               	bcf	status, 5	;RP0=0, select bank0
  4205  0F9B  1303               	bcf	status, 6	;RP1=0, select bank0
  4206  0F9C  0830               	movf	0+(_mas3)+04h,w
  4207  0F9D  3E30               	addlw	030h
  4208  0F9E  00F6               	movwf	(??_Increment+0)+0
  4209  0F9F  0876               	movf	(??_Increment+0)+0,w
  4210  0FA0  00FD               	movwf	(_t1)
  4211                           	line	157
  4212                           	
  4213  0FA1                     l4009:	
  4214                           ;proga.c: 157: LCDWrite(t1, 1);
  4215  0FA1  087D               	movf	(_t1),w
  4216  0FA2  00F6               	movwf	(??_Increment+0)+0
  4217  0FA3  01F7               	clrf	(??_Increment+0)+0+1
  4218  0FA4  0876               	movf	0+(??_Increment+0)+0,w
  4219  0FA5  00F0               	movwf	(?_LCDWrite)
  4220  0FA6  0877               	movf	1+(??_Increment+0)+0,w
  4221  0FA7  00F1               	movwf	(?_LCDWrite+1)
  4222  0FA8  3001               	movlw	low(01h)
  4223  0FA9  00F2               	movwf	0+(?_LCDWrite)+02h
  4224  0FAA  3000               	movlw	high(01h)
  4225  0FAB  00F3               	movwf	(0+(?_LCDWrite)+02h)+1
  4226  0FAC  118A  2132  158A   	fcall	_LCDWrite
  4227                           	line	158
  4228                           	
  4229  0FAF                     l4011:	
  4230                           ;proga.c: 158: t1=mas3[5]+48;
  4231  0FAF  1283               	bcf	status, 5	;RP0=0, select bank0
  4232  0FB0  1303               	bcf	status, 6	;RP1=0, select bank0
  4233  0FB1  0831               	movf	0+(_mas3)+05h,w
  4234  0FB2  3E30               	addlw	030h
  4235  0FB3  00F6               	movwf	(??_Increment+0)+0
  4236  0FB4  0876               	movf	(??_Increment+0)+0,w
  4237  0FB5  00FD               	movwf	(_t1)
  4238                           	line	159
  4239                           	
  4240  0FB6                     l4013:	
  4241                           ;proga.c: 159: LCDWrite(t1, 1);
  4242  0FB6  087D               	movf	(_t1),w
  4243  0FB7  00F6               	movwf	(??_Increment+0)+0
  4244  0FB8  01F7               	clrf	(??_Increment+0)+0+1
  4245  0FB9  0876               	movf	0+(??_Increment+0)+0,w
  4246  0FBA  00F0               	movwf	(?_LCDWrite)
  4247  0FBB  0877               	movf	1+(??_Increment+0)+0,w
  4248  0FBC  00F1               	movwf	(?_LCDWrite+1)
  4249  0FBD  3001               	movlw	low(01h)
  4250  0FBE  00F2               	movwf	0+(?_LCDWrite)+02h
  4251  0FBF  3000               	movlw	high(01h)
  4252  0FC0  00F3               	movwf	(0+(?_LCDWrite)+02h)+1
  4253  0FC1  118A  2132  158A   	fcall	_LCDWrite
  4254                           	line	161
  4255                           	
  4256  0FC4                     l4015:	
  4257                           ;proga.c: 161: _delay((unsigned long)((150)*(4000000/4000.0)));
  4258                           	opt asmopt_off
  4259  0FC4  30C3               movlw	195
  4260  0FC5  00F7               movwf	((??_Increment+0)+0+1),f
  4261  0FC6  30CD               	movlw	205
  4262  0FC7  00F6               movwf	((??_Increment+0)+0),f
  4263  0FC8                     u4427:
  4264  0FC8  0BF6               	decfsz	((??_Increment+0)+0),f
  4265  0FC9  2FC8               	goto	u4427
  4266  0FCA  0BF7               	decfsz	((??_Increment+0)+0+1),f
  4267  0FCB  2FC8               	goto	u4427
  4268                           opt asmopt_on
  4269                           
  4270                           	line	162
  4271                           	
  4272  0FCC                     l4017:	
  4273                           ;proga.c: 162: _delay((unsigned long)((150)*(4000000/4000.0)));
  4274                           	opt asmopt_off
  4275  0FCC  30C3               movlw	195
  4276  0FCD  00F7               movwf	((??_Increment+0)+0+1),f
  4277  0FCE  30CD               	movlw	205
  4278  0FCF  00F6               movwf	((??_Increment+0)+0),f
  4279  0FD0                     u4437:
  4280  0FD0  0BF6               	decfsz	((??_Increment+0)+0),f
  4281  0FD1  2FD0               	goto	u4437
  4282  0FD2  0BF7               	decfsz	((??_Increment+0)+0+1),f
  4283  0FD3  2FD0               	goto	u4437
  4284                           opt asmopt_on
  4285                           
  4286                           	line	163
  4287                           	
  4288  0FD4                     l4019:	
  4289                           ;proga.c: 163: _delay((unsigned long)((150)*(4000000/4000.0)));
  4290                           	opt asmopt_off
  4291  0FD4  30C3               movlw	195
  4292  0FD5  00F7               movwf	((??_Increment+0)+0+1),f
  4293  0FD6  30CD               	movlw	205
  4294  0FD7  00F6               movwf	((??_Increment+0)+0),f
  4295  0FD8                     u4447:
  4296  0FD8  0BF6               	decfsz	((??_Increment+0)+0),f
  4297  0FD9  2FD8               	goto	u4447
  4298  0FDA  0BF7               	decfsz	((??_Increment+0)+0+1),f
  4299  0FDB  2FD8               	goto	u4447
  4300                           opt asmopt_on
  4301                           
  4302                           	line	164
  4303                           	
  4304  0FDC                     l4021:	
  4305                           ;proga.c: 164: _delay((unsigned long)((150)*(4000000/4000.0)));
  4306                           	opt asmopt_off
  4307  0FDC  30C3               movlw	195
  4308  0FDD  00F7               movwf	((??_Increment+0)+0+1),f
  4309  0FDE  30CD               	movlw	205
  4310  0FDF  00F6               movwf	((??_Increment+0)+0),f
  4311  0FE0                     u4457:
  4312  0FE0  0BF6               	decfsz	((??_Increment+0)+0),f
  4313  0FE1  2FE0               	goto	u4457
  4314  0FE2  0BF7               	decfsz	((??_Increment+0)+0+1),f
  4315  0FE3  2FE0               	goto	u4457
  4316                           opt asmopt_on
  4317                           
  4318                           	line	165
  4319                           	
  4320  0FE4                     l4023:	
  4321                           ;proga.c: 165: _delay((unsigned long)((150)*(4000000/4000.0)));
  4322                           	opt asmopt_off
  4323  0FE4  30C3               movlw	195
  4324  0FE5  00F7               movwf	((??_Increment+0)+0+1),f
  4325  0FE6  30CD               	movlw	205
  4326  0FE7  00F6               movwf	((??_Increment+0)+0),f
  4327  0FE8                     u4467:
  4328  0FE8  0BF6               	decfsz	((??_Increment+0)+0),f
  4329  0FE9  2FE8               	goto	u4467
  4330  0FEA  0BF7               	decfsz	((??_Increment+0)+0+1),f
  4331  0FEB  2FE8               	goto	u4467
  4332                           opt asmopt_on
  4333                           
  4334                           	line	166
  4335                           	
  4336  0FEC                     l4025:	
  4337                           ;proga.c: 166: _delay((unsigned long)((150)*(4000000/4000.0)));
  4338                           	opt asmopt_off
  4339  0FEC  30C3               movlw	195
  4340  0FED  00F7               movwf	((??_Increment+0)+0+1),f
  4341  0FEE  30CD               	movlw	205
  4342  0FEF  00F6               movwf	((??_Increment+0)+0),f
  4343  0FF0                     u4477:
  4344  0FF0  0BF6               	decfsz	((??_Increment+0)+0),f
  4345  0FF1  2FF0               	goto	u4477
  4346  0FF2  0BF7               	decfsz	((??_Increment+0)+0+1),f
  4347  0FF3  2FF0               	goto	u4477
  4348                           opt asmopt_on
  4349                           
  4350                           	line	167
  4351                           	
  4352  0FF4                     l4027:	
  4353                           ;proga.c: 167: _delay((unsigned long)((92)*(4000000/4000.0)));
  4354                           	opt asmopt_off
  4355  0FF4  3078               movlw	120
  4356  0FF5  00F7               movwf	((??_Increment+0)+0+1),f
  4357  0FF6  3079               	movlw	121
  4358  0FF7  00F6               movwf	((??_Increment+0)+0),f
  4359  0FF8                     u4487:
  4360  0FF8  0BF6               	decfsz	((??_Increment+0)+0),f
  4361  0FF9  2FF8               	goto	u4487
  4362  0FFA  0BF7               	decfsz	((??_Increment+0)+0+1),f
  4363  0FFB  2FF8               	goto	u4487
  4364  0FFC  2FFD               	nop2
  4365                           opt asmopt_on
  4366                           
  4367                           	line	172
  4368                           ;proga.c: 172: }
  4369  0FFD  2D53               	goto	l934
  4370                           	
  4371  0FFE                     l969:	
  4372  0FFE  2FFF               	goto	l970
  4373                           	line	175
  4374                           ;proga.c: 175: end:;
  4375                           	
  4376  0FFF                     l957:	
  4377                           	line	177
  4378                           	
  4379  0FFF                     l970:	
  4380  0FFF  0008               	return
  4381                           	opt stack 0
  4382                           GLOBAL	__end_of_Increment
  4383  1000                     	__end_of_Increment:
  4384 ;; =============== function _Increment ends ============
  4385                           
  4386                           	signat	_Increment,90
  4387                           	global	_Message1
  4388                           psect	text258,local,class=CODE,delta=2
  4389                           global __ptext258
  4390  00A9                     __ptext258:
  4391                           
  4392 ;; *************** function _Message1 *****************
  4393 ;; Defined at:
  4394 ;;		line 180 in file "C:\Users\gf\Desktop\photoresist\project\proga.c"
  4395 ;; Parameters:    Size  Location     Type
  4396 ;;		None
  4397 ;; Auto vars:     Size  Location     Type
  4398 ;;		None
  4399 ;; Return value:  Size  Location     Type
  4400 ;;                  2  972[COMMON] int 
  4401 ;; Registers used:
  4402 ;;		wreg, status,2, status,0, btemp+1, pclath, cstack
  4403 ;; Tracked objects:
  4404 ;;		On entry : 0/0
  4405 ;;		On exit  : 0/0
  4406 ;;		Unchanged: 0/0
  4407 ;; Data sizes:     COMMON   BANK0   BANK1   BANK2
  4408 ;;      Params:         0       0       0       0
  4409 ;;      Locals:         0       0       0       0
  4410 ;;      Temps:          0       0       0       0
  4411 ;;      Totals:         0       0       0       0
  4412 ;;Total ram usage:        0 bytes
  4413 ;; Hardware stack levels used:    1
  4414 ;; Hardware stack levels required when called:    1
  4415 ;; This function calls:
  4416 ;;		_LCDWrite
  4417 ;; This function is called by:
  4418 ;;		_main
  4419 ;; This function uses a non-reentrant model
  4420 ;;
  4421                           psect	text258
  4422                           	file	"C:\Users\gf\Desktop\photoresist\project\proga.c"
  4423                           	line	180
  4424                           	global	__size_of_Message1
  4425  0043                     	__size_of_Message1	equ	__end_of_Message1-_Message1
  4426                           	
  4427  00A9                     _Message1:	
  4428                           	opt	stack 6
  4429                           ; Regs used in _Message1: [wreg+status,2+status,0+btemp+1+pclath+cstack]
  4430                           	line	181
  4431                           	
  4432  00A9                     l3857:	
  4433                           ;proga.c: 181: LCDWrite('T', 1);
  4434  00A9  3054               	movlw	low(054h)
  4435  00AA  00F0               	movwf	(?_LCDWrite)
  4436  00AB  3000               	movlw	high(054h)
  4437  00AC  00F1               	movwf	((?_LCDWrite))+1
  4438  00AD  3001               	movlw	low(01h)
  4439  00AE  00F2               	movwf	0+(?_LCDWrite)+02h
  4440  00AF  3000               	movlw	high(01h)
  4441  00B0  00F3               	movwf	(0+(?_LCDWrite)+02h)+1
  4442  00B1  118A  2132  118A   	fcall	_LCDWrite
  4443                           	line	182
  4444                           ;proga.c: 182: LCDWrite('i', 1);
  4445  00B4  3069               	movlw	low(069h)
  4446  00B5  00F0               	movwf	(?_LCDWrite)
  4447  00B6  3000               	movlw	high(069h)
  4448  00B7  00F1               	movwf	((?_LCDWrite))+1
  4449  00B8  3001               	movlw	low(01h)
  4450  00B9  00F2               	movwf	0+(?_LCDWrite)+02h
  4451  00BA  3000               	movlw	high(01h)
  4452  00BB  00F3               	movwf	(0+(?_LCDWrite)+02h)+1
  4453  00BC  118A  2132  118A   	fcall	_LCDWrite
  4454                           	line	183
  4455                           ;proga.c: 183: LCDWrite('m', 1);
  4456  00BF  306D               	movlw	low(06Dh)
  4457  00C0  00F0               	movwf	(?_LCDWrite)
  4458  00C1  3000               	movlw	high(06Dh)
  4459  00C2  00F1               	movwf	((?_LCDWrite))+1
  4460  00C3  3001               	movlw	low(01h)
  4461  00C4  00F2               	movwf	0+(?_LCDWrite)+02h
  4462  00C5  3000               	movlw	high(01h)
  4463  00C6  00F3               	movwf	(0+(?_LCDWrite)+02h)+1
  4464  00C7  118A  2132  118A   	fcall	_LCDWrite
  4465                           	line	184
  4466                           ;proga.c: 184: LCDWrite('e', 1);
  4467  00CA  3065               	movlw	low(065h)
  4468  00CB  00F0               	movwf	(?_LCDWrite)
  4469  00CC  3000               	movlw	high(065h)
  4470  00CD  00F1               	movwf	((?_LCDWrite))+1
  4471  00CE  3001               	movlw	low(01h)
  4472  00CF  00F2               	movwf	0+(?_LCDWrite)+02h
  4473  00D0  3000               	movlw	high(01h)
  4474  00D1  00F3               	movwf	(0+(?_LCDWrite)+02h)+1
  4475  00D2  118A  2132  118A   	fcall	_LCDWrite
  4476                           	line	185
  4477                           ;proga.c: 185: LCDWrite(':', 1);
  4478  00D5  303A               	movlw	low(03Ah)
  4479  00D6  00F0               	movwf	(?_LCDWrite)
  4480  00D7  3000               	movlw	high(03Ah)
  4481  00D8  00F1               	movwf	((?_LCDWrite))+1
  4482  00D9  3001               	movlw	low(01h)
  4483  00DA  00F2               	movwf	0+(?_LCDWrite)+02h
  4484  00DB  3000               	movlw	high(01h)
  4485  00DC  00F3               	movwf	(0+(?_LCDWrite)+02h)+1
  4486  00DD  118A  2132  118A   	fcall	_LCDWrite
  4487                           	line	186
  4488                           ;proga.c: 186: LCDWrite(192, 0);
  4489  00E0  30C0               	movlw	low(0C0h)
  4490  00E1  00F0               	movwf	(?_LCDWrite)
  4491  00E2  3000               	movlw	high(0C0h)
  4492  00E3  00F1               	movwf	((?_LCDWrite))+1
  4493  00E4  3000               	movlw	low(0)
  4494  00E5  00F2               	movwf	0+(?_LCDWrite)+02h
  4495  00E6  3000               	movlw	high(0)
  4496  00E7  00F3               	movwf	(0+(?_LCDWrite)+02h)+1
  4497  00E8  118A  2132  118A   	fcall	_LCDWrite
  4498                           	line	187
  4499                           	
  4500  00EB                     l973:	
  4501  00EB  0008               	return
  4502                           	opt stack 0
  4503                           GLOBAL	__end_of_Message1
  4504  00EC                     	__end_of_Message1:
  4505 ;; =============== function _Message1 ends ============
  4506                           
  4507                           	signat	_Message1,90
  4508                           	global	_Message2
  4509                           psect	text259,local,class=CODE,delta=2
  4510                           global __ptext259
  4511  017F                     __ptext259:
  4512                           
  4513 ;; *************** function _Message2 *****************
  4514 ;; Defined at:
  4515 ;;		line 189 in file "C:\Users\gf\Desktop\photoresist\project\proga.c"
  4516 ;; Parameters:    Size  Location     Type
  4517 ;;		None
  4518 ;; Auto vars:     Size  Location     Type
  4519 ;;		None
  4520 ;; Return value:  Size  Location     Type
  4521 ;;                  2  920[COMMON] int 
  4522 ;; Registers used:
  4523 ;;		wreg, status,2, status,0, btemp+1, pclath, cstack
  4524 ;; Tracked objects:
  4525 ;;		On entry : 0/0
  4526 ;;		On exit  : 0/0
  4527 ;;		Unchanged: 0/0
  4528 ;; Data sizes:     COMMON   BANK0   BANK1   BANK2
  4529 ;;      Params:         0       0       0       0
  4530 ;;      Locals:         0       0       0       0
  4531 ;;      Temps:          0       0       0       0
  4532 ;;      Totals:         0       0       0       0
  4533 ;;Total ram usage:        0 bytes
  4534 ;; Hardware stack levels used:    1
  4535 ;; Hardware stack levels required when called:    1
  4536 ;; This function calls:
  4537 ;;		_LCDWrite
  4538 ;; This function is called by:
  4539 ;;		_Increment
  4540 ;; This function uses a non-reentrant model
  4541 ;;
  4542                           psect	text259
  4543                           	file	"C:\Users\gf\Desktop\photoresist\project\proga.c"
  4544                           	line	189
  4545                           	global	__size_of_Message2
  4546  0059                     	__size_of_Message2	equ	__end_of_Message2-_Message2
  4547                           	
  4548  017F                     _Message2:	
  4549                           	opt	stack 5
  4550                           ; Regs used in _Message2: [wreg+status,2+status,0+btemp+1+pclath+cstack]
  4551                           	line	190
  4552                           	
  4553  017F                     l3855:	
  4554                           ;proga.c: 190: LCDWrite('R', 1);
  4555  017F  3052               	movlw	low(052h)
  4556  0180  00F0               	movwf	(?_LCDWrite)
  4557  0181  3000               	movlw	high(052h)
  4558  0182  00F1               	movwf	((?_LCDWrite))+1
  4559  0183  3001               	movlw	low(01h)
  4560  0184  00F2               	movwf	0+(?_LCDWrite)+02h
  4561  0185  3000               	movlw	high(01h)
  4562  0186  00F3               	movwf	(0+(?_LCDWrite)+02h)+1
  4563  0187  118A  2132  118A   	fcall	_LCDWrite
  4564                           	line	191
  4565                           ;proga.c: 191: LCDWrite('e', 1);
  4566  018A  3065               	movlw	low(065h)
  4567  018B  00F0               	movwf	(?_LCDWrite)
  4568  018C  3000               	movlw	high(065h)
  4569  018D  00F1               	movwf	((?_LCDWrite))+1
  4570  018E  3001               	movlw	low(01h)
  4571  018F  00F2               	movwf	0+(?_LCDWrite)+02h
  4572  0190  3000               	movlw	high(01h)
  4573  0191  00F3               	movwf	(0+(?_LCDWrite)+02h)+1
  4574  0192  118A  2132  118A   	fcall	_LCDWrite
  4575                           	line	192
  4576                           ;proga.c: 192: LCDWrite('m', 1);
  4577  0195  306D               	movlw	low(06Dh)
  4578  0196  00F0               	movwf	(?_LCDWrite)
  4579  0197  3000               	movlw	high(06Dh)
  4580  0198  00F1               	movwf	((?_LCDWrite))+1
  4581  0199  3001               	movlw	low(01h)
  4582  019A  00F2               	movwf	0+(?_LCDWrite)+02h
  4583  019B  3000               	movlw	high(01h)
  4584  019C  00F3               	movwf	(0+(?_LCDWrite)+02h)+1
  4585  019D  118A  2132  118A   	fcall	_LCDWrite
  4586                           	line	193
  4587                           ;proga.c: 193: LCDWrite('a', 1);
  4588  01A0  3061               	movlw	low(061h)
  4589  01A1  00F0               	movwf	(?_LCDWrite)
  4590  01A2  3000               	movlw	high(061h)
  4591  01A3  00F1               	movwf	((?_LCDWrite))+1
  4592  01A4  3001               	movlw	low(01h)
  4593  01A5  00F2               	movwf	0+(?_LCDWrite)+02h
  4594  01A6  3000               	movlw	high(01h)
  4595  01A7  00F3               	movwf	(0+(?_LCDWrite)+02h)+1
  4596  01A8  118A  2132  118A   	fcall	_LCDWrite
  4597                           	line	194
  4598                           ;proga.c: 194: LCDWrite('i', 1);
  4599  01AB  3069               	movlw	low(069h)
  4600  01AC  00F0               	movwf	(?_LCDWrite)
  4601  01AD  3000               	movlw	high(069h)
  4602  01AE  00F1               	movwf	((?_LCDWrite))+1
  4603  01AF  3001               	movlw	low(01h)
  4604  01B0  00F2               	movwf	0+(?_LCDWrite)+02h
  4605  01B1  3000               	movlw	high(01h)
  4606  01B2  00F3               	movwf	(0+(?_LCDWrite)+02h)+1
  4607  01B3  118A  2132  118A   	fcall	_LCDWrite
  4608                           	line	195
  4609                           ;proga.c: 195: LCDWrite('n', 1);
  4610  01B6  306E               	movlw	low(06Eh)
  4611  01B7  00F0               	movwf	(?_LCDWrite)
  4612  01B8  3000               	movlw	high(06Eh)
  4613  01B9  00F1               	movwf	((?_LCDWrite))+1
  4614  01BA  3001               	movlw	low(01h)
  4615  01BB  00F2               	movwf	0+(?_LCDWrite)+02h
  4616  01BC  3000               	movlw	high(01h)
  4617  01BD  00F3               	movwf	(0+(?_LCDWrite)+02h)+1
  4618  01BE  118A  2132  118A   	fcall	_LCDWrite
  4619                           	line	196
  4620                           ;proga.c: 196: LCDWrite(':', 1);
  4621  01C1  303A               	movlw	low(03Ah)
  4622  01C2  00F0               	movwf	(?_LCDWrite)
  4623  01C3  3000               	movlw	high(03Ah)
  4624  01C4  00F1               	movwf	((?_LCDWrite))+1
  4625  01C5  3001               	movlw	low(01h)
  4626  01C6  00F2               	movwf	0+(?_LCDWrite)+02h
  4627  01C7  3000               	movlw	high(01h)
  4628  01C8  00F3               	movwf	(0+(?_LCDWrite)+02h)+1
  4629  01C9  118A  2132  118A   	fcall	_LCDWrite
  4630                           	line	197
  4631                           ;proga.c: 197: LCDWrite(192, 0);
  4632  01CC  30C0               	movlw	low(0C0h)
  4633  01CD  00F0               	movwf	(?_LCDWrite)
  4634  01CE  3000               	movlw	high(0C0h)
  4635  01CF  00F1               	movwf	((?_LCDWrite))+1
  4636  01D0  3000               	movlw	low(0)
  4637  01D1  00F2               	movwf	0+(?_LCDWrite)+02h
  4638  01D2  3000               	movlw	high(0)
  4639  01D3  00F3               	movwf	(0+(?_LCDWrite)+02h)+1
  4640  01D4  118A  2132  118A   	fcall	_LCDWrite
  4641                           	line	198
  4642                           	
  4643  01D7                     l976:	
  4644  01D7  0008               	return
  4645                           	opt stack 0
  4646                           GLOBAL	__end_of_Message2
  4647  01D8                     	__end_of_Message2:
  4648 ;; =============== function _Message2 ends ============
  4649                           
  4650                           	signat	_Message2,90
  4651                           	global	_Sbros
  4652                           psect	text260,local,class=CODE,delta=2
  4653                           global __ptext260
  4654  0091                     __ptext260:
  4655                           
  4656 ;; *************** function _Sbros *****************
  4657 ;; Defined at:
  4658 ;;		line 15 in file "C:\Users\gf\Desktop\photoresist\project\proga.c"
  4659 ;; Parameters:    Size  Location     Type
  4660 ;;		None
  4661 ;; Auto vars:     Size  Location     Type
  4662 ;;		None
  4663 ;; Return value:  Size  Location     Type
  4664 ;;                  2  930[COMMON] int 
  4665 ;; Registers used:
  4666 ;;		wreg, status,2, status,0, btemp+1, pclath, cstack
  4667 ;; Tracked objects:
  4668 ;;		On entry : 0/0
  4669 ;;		On exit  : 0/0
  4670 ;;		Unchanged: 0/0
  4671 ;; Data sizes:     COMMON   BANK0   BANK1   BANK2
  4672 ;;      Params:         0       0       0       0
  4673 ;;      Locals:         0       0       0       0
  4674 ;;      Temps:          0       0       0       0
  4675 ;;      Totals:         0       0       0       0
  4676 ;;Total ram usage:        0 bytes
  4677 ;; Hardware stack levels used:    1
  4678 ;; Hardware stack levels required when called:    1
  4679 ;; This function calls:
  4680 ;;		_buzz2
  4681 ;; This function is called by:
  4682 ;;		_main
  4683 ;; This function uses a non-reentrant model
  4684 ;;
  4685                           psect	text260
  4686                           	file	"C:\Users\gf\Desktop\photoresist\project\proga.c"
  4687                           	line	15
  4688                           	global	__size_of_Sbros
  4689  0018                     	__size_of_Sbros	equ	__end_of_Sbros-_Sbros
  4690                           	
  4691  0091                     _Sbros:	
  4692                           	opt	stack 6
  4693                           ; Regs used in _Sbros: [wreg+status,2+status,0+btemp+1+pclath+cstack]
  4694                           	line	17
  4695                           	
  4696  0091                     l3845:	
  4697                           ;proga.c: 17: flag=0;
  4698  0091  1283               	bcf	status, 5	;RP0=0, select bank0
  4699  0092  1303               	bcf	status, 6	;RP1=0, select bank0
  4700  0093  01BC               	clrf	(_flag)
  4701                           	line	18
  4702                           ;proga.c: 18: RB6=0;
  4703  0094  1306               	bcf	(54/8),(54)&7
  4704                           	line	19
  4705                           ;proga.c: 19: RB7=0;
  4706  0095  1386               	bcf	(55/8),(55)&7
  4707                           	line	21
  4708                           	
  4709  0096                     l3847:	
  4710                           ;proga.c: 21: buzz2();
  4711  0096  118A  20EC  118A   	fcall	_buzz2
  4712                           	line	22
  4713                           ;proga.c: 22: buzz2();
  4714  0099  118A  20EC  118A   	fcall	_buzz2
  4715                           	line	23
  4716                           ;proga.c: 23: buzz2();
  4717  009C  118A  20EC  118A   	fcall	_buzz2
  4718                           	line	25
  4719                           	
  4720  009F                     l3849:	
  4721                           ;proga.c: 25: TRISA=0b11101111;
  4722  009F  30EF               	movlw	(0EFh)
  4723  00A0  1683               	bsf	status, 5	;RP0=1, select bank1
  4724  00A1  1303               	bcf	status, 6	;RP1=0, select bank1
  4725  00A2  0085               	movwf	(133)^080h	;volatile
  4726                           	line	26
  4727                           	
  4728  00A3                     l3851:	
  4729                           ;proga.c: 26: RB4=0;
  4730  00A3  1283               	bcf	status, 5	;RP0=0, select bank0
  4731  00A4  1303               	bcf	status, 6	;RP1=0, select bank0
  4732  00A5  1206               	bcf	(52/8),(52)&7
  4733                           	line	27
  4734                           	
  4735  00A6                     l3853:	
  4736                           ;proga.c: 27: PORTA=0b00010000;
  4737  00A6  3010               	movlw	(010h)
  4738  00A7  0085               	movwf	(5)	;volatile
  4739                           	line	28
  4740                           	
  4741  00A8                     l931:	
  4742  00A8  0008               	return
  4743                           	opt stack 0
  4744                           GLOBAL	__end_of_Sbros
  4745  00A9                     	__end_of_Sbros:
  4746 ;; =============== function _Sbros ends ============
  4747                           
  4748                           	signat	_Sbros,90
  4749                           	global	_LCDInit
  4750                           psect	text261,local,class=CODE,delta=2
  4751                           global __ptext261
  4752  0239                     __ptext261:
  4753                           
  4754 ;; *************** function _LCDInit *****************
  4755 ;; Defined at:
  4756 ;;		line 21 in file "C:\Users\gf\Desktop\photoresist\project\lcd.h"
  4757 ;; Parameters:    Size  Location     Type
  4758 ;;		None
  4759 ;; Auto vars:     Size  Location     Type
  4760 ;;		None
  4761 ;; Return value:  Size  Location     Type
  4762 ;;		None               void
  4763 ;; Registers used:
  4764 ;;		wreg, status,2, status,0, btemp+1, pclath, cstack
  4765 ;; Tracked objects:
  4766 ;;		On entry : 0/0
  4767 ;;		On exit  : 0/0
  4768 ;;		Unchanged: 0/0
  4769 ;; Data sizes:     COMMON   BANK0   BANK1   BANK2
  4770 ;;      Params:         0       0       0       0
  4771 ;;      Locals:         0       0       0       0
  4772 ;;      Temps:          2       0       0       0
  4773 ;;      Totals:         2       0       0       0
  4774 ;;Total ram usage:        2 bytes
  4775 ;; Hardware stack levels used:    1
  4776 ;; Hardware stack levels required when called:    1
  4777 ;; This function calls:
  4778 ;;		_LCDWrite
  4779 ;; This function is called by:
  4780 ;;		_main
  4781 ;; This function uses a non-reentrant model
  4782 ;;
  4783                           psect	text261
  4784                           	file	"C:\Users\gf\Desktop\photoresist\project\lcd.h"
  4785                           	line	21
  4786                           	global	__size_of_LCDInit
  4787  0061                     	__size_of_LCDInit	equ	__end_of_LCDInit-_LCDInit
  4788                           	
  4789  0239                     _LCDInit:	
  4790                           	opt	stack 6
  4791                           ; Regs used in _LCDInit: [wreg+status,2+status,0+btemp+1+pclath+cstack]
  4792                           	line	22
  4793                           	
  4794  0239                     l3819:	
  4795                           ;lcd.h: 22: _delay((unsigned long)((50)*(4000000/4000.0)));
  4796                           	opt asmopt_off
  4797  0239  3041               movlw	65
  4798  023A  00F7               movwf	((??_LCDInit+0)+0+1),f
  4799  023B  30EE               	movlw	238
  4800  023C  00F6               movwf	((??_LCDInit+0)+0),f
  4801  023D                     u4497:
  4802  023D  0BF6               	decfsz	((??_LCDInit+0)+0),f
  4803  023E  2A3D               	goto	u4497
  4804  023F  0BF7               	decfsz	((??_LCDInit+0)+0+1),f
  4805  0240  2A3D               	goto	u4497
  4806  0241  0064               	clrwdt
  4807                           opt asmopt_on
  4808                           
  4809                           	line	23
  4810                           ;lcd.h: 23: PORTC = 3;
  4811  0242  3003               	movlw	(03h)
  4812  0243  1283               	bcf	status, 5	;RP0=0, select bank0
  4813  0244  1303               	bcf	status, 6	;RP1=0, select bank0
  4814  0245  0087               	movwf	(7)	;volatile
  4815                           	line	24
  4816                           	
  4817  0246                     l3821:	
  4818                           ;lcd.h: 24: RC4 = 1; RC4 = 0;
  4819  0246  1607               	bsf	(60/8),(60)&7
  4820                           	
  4821  0247                     l3823:	
  4822  0247  1207               	bcf	(60/8),(60)&7
  4823                           	line	25
  4824                           ;lcd.h: 25: _delay((unsigned long)((5)*(4000000/4000.0)));
  4825                           	opt asmopt_off
  4826  0248  3007               movlw	7
  4827  0249  00F7               movwf	((??_LCDInit+0)+0+1),f
  4828  024A  307D               	movlw	125
  4829  024B  00F6               movwf	((??_LCDInit+0)+0),f
  4830  024C                     u4507:
  4831  024C  0BF6               	decfsz	((??_LCDInit+0)+0),f
  4832  024D  2A4C               	goto	u4507
  4833  024E  0BF7               	decfsz	((??_LCDInit+0)+0+1),f
  4834  024F  2A4C               	goto	u4507
  4835                           opt asmopt_on
  4836                           
  4837                           	line	26
  4838                           	
  4839  0250                     l3825:	
  4840                           ;lcd.h: 26: RC4 = 1; RC4 = 0;
  4841  0250  1283               	bcf	status, 5	;RP0=0, select bank0
  4842  0251  1303               	bcf	status, 6	;RP1=0, select bank0
  4843  0252  1607               	bsf	(60/8),(60)&7
  4844                           	
  4845  0253                     l3827:	
  4846  0253  1207               	bcf	(60/8),(60)&7
  4847                           	line	27
  4848                           ;lcd.h: 27: _delay((unsigned long)((200)*(4000000/4000000.0)));
  4849                           	opt asmopt_off
  4850  0254  3042               movlw	66
  4851  0255  00F6               movwf	(??_LCDInit+0)+0,f
  4852  0256                     u4517:
  4853  0256  0BF6               decfsz	(??_LCDInit+0)+0,f
  4854  0257  2A56               	goto	u4517
  4855  0258  0064               	clrwdt
  4856                           opt asmopt_on
  4857                           
  4858                           	line	28
  4859                           	
  4860  0259                     l3829:	
  4861                           ;lcd.h: 28: RC4 = 1; RC4 = 0;
  4862  0259  1283               	bcf	status, 5	;RP0=0, select bank0
  4863  025A  1303               	bcf	status, 6	;RP1=0, select bank0
  4864  025B  1607               	bsf	(60/8),(60)&7
  4865                           	
  4866  025C                     l3831:	
  4867  025C  1207               	bcf	(60/8),(60)&7
  4868                           	line	29
  4869                           ;lcd.h: 29: _delay((unsigned long)((200)*(4000000/4000000.0)));
  4870                           	opt asmopt_off
  4871  025D  3042               movlw	66
  4872  025E  00F6               movwf	(??_LCDInit+0)+0,f
  4873  025F                     u4527:
  4874  025F  0BF6               decfsz	(??_LCDInit+0)+0,f
  4875  0260  2A5F               	goto	u4527
  4876  0261  0064               	clrwdt
  4877                           opt asmopt_on
  4878                           
  4879                           	line	30
  4880                           ;lcd.h: 30: PORTC = 2;
  4881  0262  3002               	movlw	(02h)
  4882  0263  1283               	bcf	status, 5	;RP0=0, select bank0
  4883  0264  1303               	bcf	status, 6	;RP1=0, select bank0
  4884  0265  0087               	movwf	(7)	;volatile
  4885                           	line	31
  4886                           	
  4887  0266                     l3833:	
  4888                           ;lcd.h: 31: RC4 = 1; RC4 = 0;
  4889  0266  1607               	bsf	(60/8),(60)&7
  4890                           	
  4891  0267                     l3835:	
  4892  0267  1207               	bcf	(60/8),(60)&7
  4893                           	line	32
  4894                           ;lcd.h: 32: _delay((unsigned long)((200)*(4000000/4000000.0)));
  4895                           	opt asmopt_off
  4896  0268  3042               movlw	66
  4897  0269  00F6               movwf	(??_LCDInit+0)+0,f
  4898  026A                     u4537:
  4899  026A  0BF6               decfsz	(??_LCDInit+0)+0,f
  4900  026B  2A6A               	goto	u4537
  4901  026C  0064               	clrwdt
  4902                           opt asmopt_on
  4903                           
  4904                           	line	33
  4905                           	
  4906  026D                     l3837:	
  4907                           ;lcd.h: 33: LCDWrite(0b00101000, 0);
  4908  026D  3028               	movlw	low(028h)
  4909  026E  00F0               	movwf	(?_LCDWrite)
  4910  026F  3000               	movlw	high(028h)
  4911  0270  00F1               	movwf	((?_LCDWrite))+1
  4912  0271  3000               	movlw	low(0)
  4913  0272  00F2               	movwf	0+(?_LCDWrite)+02h
  4914  0273  3000               	movlw	high(0)
  4915  0274  00F3               	movwf	(0+(?_LCDWrite)+02h)+1
  4916  0275  118A  2132  118A   	fcall	_LCDWrite
  4917                           	line	34
  4918                           	
  4919  0278                     l3839:	
  4920                           ;lcd.h: 34: LCDWrite(0b00000001, 0);
  4921  0278  3001               	movlw	low(01h)
  4922  0279  00F0               	movwf	(?_LCDWrite)
  4923  027A  3000               	movlw	high(01h)
  4924  027B  00F1               	movwf	((?_LCDWrite))+1
  4925  027C  3000               	movlw	low(0)
  4926  027D  00F2               	movwf	0+(?_LCDWrite)+02h
  4927  027E  3000               	movlw	high(0)
  4928  027F  00F3               	movwf	(0+(?_LCDWrite)+02h)+1
  4929  0280  118A  2132  118A   	fcall	_LCDWrite
  4930                           	line	35
  4931                           	
  4932  0283                     l3841:	
  4933                           ;lcd.h: 35: LCDWrite(0b00000110, 0);
  4934  0283  3006               	movlw	low(06h)
  4935  0284  00F0               	movwf	(?_LCDWrite)
  4936  0285  3000               	movlw	high(06h)
  4937  0286  00F1               	movwf	((?_LCDWrite))+1
  4938  0287  3000               	movlw	low(0)
  4939  0288  00F2               	movwf	0+(?_LCDWrite)+02h
  4940  0289  3000               	movlw	high(0)
  4941  028A  00F3               	movwf	(0+(?_LCDWrite)+02h)+1
  4942  028B  118A  2132  118A   	fcall	_LCDWrite
  4943                           	line	36
  4944                           	
  4945  028E                     l3843:	
  4946                           ;lcd.h: 36: LCDWrite(0b00001110, 0);
  4947  028E  300E               	movlw	low(0Eh)
  4948  028F  00F0               	movwf	(?_LCDWrite)
  4949  0290  3000               	movlw	high(0Eh)
  4950  0291  00F1               	movwf	((?_LCDWrite))+1
  4951  0292  3000               	movlw	low(0)
  4952  0293  00F2               	movwf	0+(?_LCDWrite)+02h
  4953  0294  3000               	movlw	high(0)
  4954  0295  00F3               	movwf	(0+(?_LCDWrite)+02h)+1
  4955  0296  118A  2132  118A   	fcall	_LCDWrite
  4956                           	line	39
  4957                           	
  4958  0299                     l928:	
  4959  0299  0008               	return
  4960                           	opt stack 0
  4961                           GLOBAL	__end_of_LCDInit
  4962  029A                     	__end_of_LCDInit:
  4963 ;; =============== function _LCDInit ends ============
  4964                           
  4965                           	signat	_LCDInit,88
  4966                           	global	_buzz1
  4967                           psect	text262,local,class=CODE,delta=2
  4968                           global __ptext262
  4969  01D8                     __ptext262:
  4970                           
  4971 ;; *************** function _buzz1 *****************
  4972 ;; Defined at:
  4973 ;;		line 200 in file "C:\Users\gf\Desktop\photoresist\project\proga.c"
  4974 ;; Parameters:    Size  Location     Type
  4975 ;;		None
  4976 ;; Auto vars:     Size  Location     Type
  4977 ;;		None
  4978 ;; Return value:  Size  Location     Type
  4979 ;;                  2  918[COMMON] int 
  4980 ;; Registers used:
  4981 ;;		wreg, status,2, btemp+1
  4982 ;; Tracked objects:
  4983 ;;		On entry : 0/0
  4984 ;;		On exit  : 0/0
  4985 ;;		Unchanged: 0/0
  4986 ;; Data sizes:     COMMON   BANK0   BANK1   BANK2
  4987 ;;      Params:         0       0       0       0
  4988 ;;      Locals:         0       0       0       0
  4989 ;;      Temps:          2       0       0       0
  4990 ;;      Totals:         2       0       0       0
  4991 ;;Total ram usage:        2 bytes
  4992 ;; Hardware stack levels used:    1
  4993 ;; This function calls:
  4994 ;;		Nothing
  4995 ;; This function is called by:
  4996 ;;		_Increment
  4997 ;;		_main
  4998 ;; This function uses a non-reentrant model
  4999 ;;
  5000                           psect	text262
  5001                           	file	"C:\Users\gf\Desktop\photoresist\project\proga.c"
  5002                           	line	200
  5003                           	global	__size_of_buzz1
  5004  0061                     	__size_of_buzz1	equ	__end_of_buzz1-_buzz1
  5005                           	
  5006  01D8                     _buzz1:	
  5007                           	opt	stack 6
  5008                           ; Regs used in _buzz1: [wreg+status,2+btemp+1]
  5009                           	line	201
  5010                           	
  5011  01D8                     l3805:	
  5012                           ;proga.c: 201: for(q=0;q<100;q++){
  5013  01D8  1283               	bcf	status, 5	;RP0=0, select bank0
  5014  01D9  1303               	bcf	status, 6	;RP1=0, select bank0
  5015  01DA  01B8               	clrf	(_q)
  5016  01DB  01B9               	clrf	(_q+1)
  5017                           	
  5018  01DC                     l3807:	
  5019  01DC  0839               	movf	(_q+1),w
  5020  01DD  3A80               	xorlw	80h
  5021  01DE  00FF               	movwf	btemp+1
  5022  01DF  3080               	movlw	(high(064h))^80h
  5023  01E0  027F               	subwf	btemp+1,w
  5024  01E1  1D03               	skipz
  5025  01E2  29E5               	goto	u3285
  5026  01E3  3064               	movlw	low(064h)
  5027  01E4  0238               	subwf	(_q),w
  5028  01E5                     u3285:
  5029                           
  5030  01E5  1C03               	skipc
  5031  01E6  29E8               	goto	u3281
  5032  01E7  29E9               	goto	u3280
  5033  01E8                     u3281:
  5034  01E8  29EB               	goto	l979
  5035  01E9                     u3280:
  5036  01E9  2A2F               	goto	l3817
  5037                           	
  5038  01EA                     l3809:	
  5039  01EA  2A2F               	goto	l3817
  5040                           	
  5041  01EB                     l979:	
  5042                           	line	202
  5043                           ;proga.c: 202: RB5=1;
  5044  01EB  1283               	bcf	status, 5	;RP0=0, select bank0
  5045  01EC  1303               	bcf	status, 6	;RP1=0, select bank0
  5046  01ED  1686               	bsf	(53/8),(53)&7
  5047                           	line	203
  5048                           	
  5049  01EE                     l3811:	
  5050                           ;proga.c: 203: _delay((unsigned long)((150)*(4000000/4000000.0)));
  5051                           	opt asmopt_off
  5052  01EE  3031               movlw	49
  5053  01EF  00F0               movwf	(??_buzz1+0)+0,f
  5054  01F0                     u4547:
  5055  01F0  0BF0               decfsz	(??_buzz1+0)+0,f
  5056  01F1  29F0               	goto	u4547
  5057  01F2  29F3               	nop2	;nop
  5058                           opt asmopt_on
  5059                           
  5060                           	line	204
  5061                           ;proga.c: 204: _delay((unsigned long)((150)*(4000000/4000000.0)));
  5062                           	opt asmopt_off
  5063  01F3  3031               movlw	49
  5064  01F4  00F0               movwf	(??_buzz1+0)+0,f
  5065  01F5                     u4557:
  5066  01F5  0BF0               decfsz	(??_buzz1+0)+0,f
  5067  01F6  29F5               	goto	u4557
  5068  01F7  29F8               	nop2	;nop
  5069                           opt asmopt_on
  5070                           
  5071                           	line	205
  5072                           ;proga.c: 205: _delay((unsigned long)((150)*(4000000/4000000.0)));
  5073                           	opt asmopt_off
  5074  01F8  3031               movlw	49
  5075  01F9  00F0               movwf	(??_buzz1+0)+0,f
  5076  01FA                     u4567:
  5077  01FA  0BF0               decfsz	(??_buzz1+0)+0,f
  5078  01FB  29FA               	goto	u4567
  5079  01FC  29FD               	nop2	;nop
  5080                           opt asmopt_on
  5081                           
  5082                           	line	206
  5083                           ;proga.c: 206: _delay((unsigned long)((50)*(4000000/4000000.0)));
  5084                           	opt asmopt_off
  5085  01FD  3010               movlw	16
  5086  01FE  00F0               movwf	(??_buzz1+0)+0,f
  5087  01FF                     u4577:
  5088  01FF  0BF0               decfsz	(??_buzz1+0)+0,f
  5089  0200  29FF               	goto	u4577
  5090  0201  0064               	clrwdt
  5091                           opt asmopt_on
  5092                           
  5093                           	line	207
  5094                           	
  5095  0202                     l3813:	
  5096                           ;proga.c: 207: RB5=0;
  5097  0202  1283               	bcf	status, 5	;RP0=0, select bank0
  5098  0203  1303               	bcf	status, 6	;RP1=0, select bank0
  5099  0204  1286               	bcf	(53/8),(53)&7
  5100                           	line	208
  5101                           ;proga.c: 208: _delay((unsigned long)((150)*(4000000/4000000.0)));
  5102                           	opt asmopt_off
  5103  0205  3031               movlw	49
  5104  0206  00F0               movwf	(??_buzz1+0)+0,f
  5105  0207                     u4587:
  5106  0207  0BF0               decfsz	(??_buzz1+0)+0,f
  5107  0208  2A07               	goto	u4587
  5108  0209  2A0A               	nop2	;nop
  5109                           opt asmopt_on
  5110                           
  5111                           	line	209
  5112                           ;proga.c: 209: _delay((unsigned long)((150)*(4000000/4000000.0)));
  5113                           	opt asmopt_off
  5114  020A  3031               movlw	49
  5115  020B  00F0               movwf	(??_buzz1+0)+0,f
  5116  020C                     u4597:
  5117  020C  0BF0               decfsz	(??_buzz1+0)+0,f
  5118  020D  2A0C               	goto	u4597
  5119  020E  2A0F               	nop2	;nop
  5120                           opt asmopt_on
  5121                           
  5122                           	line	210
  5123                           ;proga.c: 210: _delay((unsigned long)((150)*(4000000/4000000.0)));
  5124                           	opt asmopt_off
  5125  020F  3031               movlw	49
  5126  0210  00F0               movwf	(??_buzz1+0)+0,f
  5127  0211                     u4607:
  5128  0211  0BF0               decfsz	(??_buzz1+0)+0,f
  5129  0212  2A11               	goto	u4607
  5130  0213  2A14               	nop2	;nop
  5131                           opt asmopt_on
  5132                           
  5133                           	line	211
  5134                           ;proga.c: 211: _delay((unsigned long)((50)*(4000000/4000000.0)));
  5135                           	opt asmopt_off
  5136  0214  3010               movlw	16
  5137  0215  00F0               movwf	(??_buzz1+0)+0,f
  5138  0216                     u4617:
  5139  0216  0BF0               decfsz	(??_buzz1+0)+0,f
  5140  0217  2A16               	goto	u4617
  5141  0218  0064               	clrwdt
  5142                           opt asmopt_on
  5143                           
  5144                           	line	201
  5145  0219  3001               	movlw	low(01h)
  5146  021A  1283               	bcf	status, 5	;RP0=0, select bank0
  5147  021B  1303               	bcf	status, 6	;RP1=0, select bank0
  5148  021C  07B8               	addwf	(_q),f
  5149  021D  1803               	skipnc
  5150  021E  0AB9               	incf	(_q+1),f
  5151  021F  3000               	movlw	high(01h)
  5152  0220  07B9               	addwf	(_q+1),f
  5153                           	
  5154  0221                     l3815:	
  5155  0221  0839               	movf	(_q+1),w
  5156  0222  3A80               	xorlw	80h
  5157  0223  00FF               	movwf	btemp+1
  5158  0224  3080               	movlw	(high(064h))^80h
  5159  0225  027F               	subwf	btemp+1,w
  5160  0226  1D03               	skipz
  5161  0227  2A2A               	goto	u3295
  5162  0228  3064               	movlw	low(064h)
  5163  0229  0238               	subwf	(_q),w
  5164  022A                     u3295:
  5165                           
  5166  022A  1C03               	skipc
  5167  022B  2A2D               	goto	u3291
  5168  022C  2A2E               	goto	u3290
  5169  022D                     u3291:
  5170  022D  29EB               	goto	l979
  5171  022E                     u3290:
  5172  022E  2A2F               	goto	l3817
  5173                           	
  5174  022F                     l980:	
  5175                           	line	213
  5176                           	
  5177  022F                     l3817:	
  5178                           ;proga.c: 212: }
  5179                           ;proga.c: 213: _delay((unsigned long)((100)*(4000000/4000.0)));
  5180                           	opt asmopt_off
  5181  022F  3082               movlw	130
  5182  0230  00F1               movwf	((??_buzz1+0)+0+1),f
  5183  0231  30DD               	movlw	221
  5184  0232  00F0               movwf	((??_buzz1+0)+0),f
  5185  0233                     u4627:
  5186  0233  0BF0               	decfsz	((??_buzz1+0)+0),f
  5187  0234  2A33               	goto	u4627
  5188  0235  0BF1               	decfsz	((??_buzz1+0)+0+1),f
  5189  0236  2A33               	goto	u4627
  5190  0237  2A38               	nop2
  5191                           opt asmopt_on
  5192                           
  5193                           	line	214
  5194                           	
  5195  0238                     l981:	
  5196  0238  0008               	return
  5197                           	opt stack 0
  5198                           GLOBAL	__end_of_buzz1
  5199  0239                     	__end_of_buzz1:
  5200 ;; =============== function _buzz1 ends ============
  5201                           
  5202                           	signat	_buzz1,90
  5203                           	global	_buzz2
  5204                           psect	text263,local,class=CODE,delta=2
  5205                           global __ptext263
  5206  00EC                     __ptext263:
  5207                           
  5208 ;; *************** function _buzz2 *****************
  5209 ;; Defined at:
  5210 ;;		line 216 in file "C:\Users\gf\Desktop\photoresist\project\proga.c"
  5211 ;; Parameters:    Size  Location     Type
  5212 ;;		None
  5213 ;; Auto vars:     Size  Location     Type
  5214 ;;		None
  5215 ;; Return value:  Size  Location     Type
  5216 ;;                  2  916[COMMON] int 
  5217 ;; Registers used:
  5218 ;;		wreg, status,2, btemp+1
  5219 ;; Tracked objects:
  5220 ;;		On entry : 0/0
  5221 ;;		On exit  : 0/0
  5222 ;;		Unchanged: 0/0
  5223 ;; Data sizes:     COMMON   BANK0   BANK1   BANK2
  5224 ;;      Params:         0       0       0       0
  5225 ;;      Locals:         0       0       0       0
  5226 ;;      Temps:          2       0       0       0
  5227 ;;      Totals:         2       0       0       0
  5228 ;;Total ram usage:        2 bytes
  5229 ;; Hardware stack levels used:    1
  5230 ;; This function calls:
  5231 ;;		Nothing
  5232 ;; This function is called by:
  5233 ;;		_Sbros
  5234 ;; This function uses a non-reentrant model
  5235 ;;
  5236                           psect	text263
  5237                           	file	"C:\Users\gf\Desktop\photoresist\project\proga.c"
  5238                           	line	216
  5239                           	global	__size_of_buzz2
  5240  0046                     	__size_of_buzz2	equ	__end_of_buzz2-_buzz2
  5241                           	
  5242  00EC                     _buzz2:	
  5243                           	opt	stack 6
  5244                           ; Regs used in _buzz2: [wreg+status,2+btemp+1]
  5245                           	line	217
  5246                           	
  5247  00EC                     l3791:	
  5248                           ;proga.c: 217: for(q=0;q<300;q++){
  5249  00EC  1283               	bcf	status, 5	;RP0=0, select bank0
  5250  00ED  1303               	bcf	status, 6	;RP1=0, select bank0
  5251  00EE  01B8               	clrf	(_q)
  5252  00EF  01B9               	clrf	(_q+1)
  5253                           	
  5254  00F0                     l3793:	
  5255  00F0  0839               	movf	(_q+1),w
  5256  00F1  3A80               	xorlw	80h
  5257  00F2  00FF               	movwf	btemp+1
  5258  00F3  3081               	movlw	(high(012Ch))^80h
  5259  00F4  027F               	subwf	btemp+1,w
  5260  00F5  1D03               	skipz
  5261  00F6  28F9               	goto	u3265
  5262  00F7  302C               	movlw	low(012Ch)
  5263  00F8  0238               	subwf	(_q),w
  5264  00F9                     u3265:
  5265                           
  5266  00F9  1C03               	skipc
  5267  00FA  28FC               	goto	u3261
  5268  00FB  28FD               	goto	u3260
  5269  00FC                     u3261:
  5270  00FC  28FF               	goto	l984
  5271  00FD                     u3260:
  5272  00FD  2929               	goto	l3803
  5273                           	
  5274  00FE                     l3795:	
  5275  00FE  2929               	goto	l3803
  5276                           	
  5277  00FF                     l984:	
  5278                           	line	218
  5279                           ;proga.c: 218: RB5=1;
  5280  00FF  1283               	bcf	status, 5	;RP0=0, select bank0
  5281  0100  1303               	bcf	status, 6	;RP1=0, select bank0
  5282  0101  1686               	bsf	(53/8),(53)&7
  5283                           	line	219
  5284                           	
  5285  0102                     l3797:	
  5286                           ;proga.c: 219: _delay((unsigned long)((1)*(4000000/4000.0)));
  5287                           	opt asmopt_off
  5288  0102  30F9               movlw	249
  5289  0103  00F0               movwf	(??_buzz2+0)+0,f
  5290  0104                     u4637:
  5291  0104  0064               	clrwdt
  5292  0105  0BF0               decfsz	(??_buzz2+0)+0,f
  5293  0106  2904               	goto	u4637
  5294  0107  2908               	nop2	;nop
  5295  0108  0064               	clrwdt
  5296                           opt asmopt_on
  5297                           
  5298                           	line	220
  5299                           	
  5300  0109                     l3799:	
  5301                           ;proga.c: 220: RB5=0;
  5302  0109  1283               	bcf	status, 5	;RP0=0, select bank0
  5303  010A  1303               	bcf	status, 6	;RP1=0, select bank0
  5304  010B  1286               	bcf	(53/8),(53)&7
  5305                           	line	221
  5306                           ;proga.c: 221: _delay((unsigned long)((1)*(4000000/4000.0)));
  5307                           	opt asmopt_off
  5308  010C  30F9               movlw	249
  5309  010D  00F0               movwf	(??_buzz2+0)+0,f
  5310  010E                     u4647:
  5311  010E  0064               	clrwdt
  5312  010F  0BF0               decfsz	(??_buzz2+0)+0,f
  5313  0110  290E               	goto	u4647
  5314  0111  2912               	nop2	;nop
  5315  0112  0064               	clrwdt
  5316                           opt asmopt_on
  5317                           
  5318                           	line	217
  5319  0113  3001               	movlw	low(01h)
  5320  0114  1283               	bcf	status, 5	;RP0=0, select bank0
  5321  0115  1303               	bcf	status, 6	;RP1=0, select bank0
  5322  0116  07B8               	addwf	(_q),f
  5323  0117  1803               	skipnc
  5324  0118  0AB9               	incf	(_q+1),f
  5325  0119  3000               	movlw	high(01h)
  5326  011A  07B9               	addwf	(_q+1),f
  5327                           	
  5328  011B                     l3801:	
  5329  011B  0839               	movf	(_q+1),w
  5330  011C  3A80               	xorlw	80h
  5331  011D  00FF               	movwf	btemp+1
  5332  011E  3081               	movlw	(high(012Ch))^80h
  5333  011F  027F               	subwf	btemp+1,w
  5334  0120  1D03               	skipz
  5335  0121  2924               	goto	u3275
  5336  0122  302C               	movlw	low(012Ch)
  5337  0123  0238               	subwf	(_q),w
  5338  0124                     u3275:
  5339                           
  5340  0124  1C03               	skipc
  5341  0125  2927               	goto	u3271
  5342  0126  2928               	goto	u3270
  5343  0127                     u3271:
  5344  0127  28FF               	goto	l984
  5345  0128                     u3270:
  5346  0128  2929               	goto	l3803
  5347                           	
  5348  0129                     l985:	
  5349                           	line	223
  5350                           	
  5351  0129                     l3803:	
  5352                           ;proga.c: 222: }
  5353                           ;proga.c: 223: _delay((unsigned long)((197)*(4000000/4000.0)));
  5354                           	opt asmopt_off
  5355  0129  3000               movlw	0
  5356  012A  00F1               movwf	((??_buzz2+0)+0+1),f
  5357  012B  30D7               	movlw	215
  5358  012C  00F0               movwf	((??_buzz2+0)+0),f
  5359  012D                     u4657:
  5360  012D  0BF0               	decfsz	((??_buzz2+0)+0),f
  5361  012E  292D               	goto	u4657
  5362  012F  0BF1               	decfsz	((??_buzz2+0)+0+1),f
  5363  0130  292D               	goto	u4657
  5364                           opt asmopt_on
  5365                           
  5366                           	line	224
  5367                           	
  5368  0131                     l986:	
  5369  0131  0008               	return
  5370                           	opt stack 0
  5371                           GLOBAL	__end_of_buzz2
  5372  0132                     	__end_of_buzz2:
  5373 ;; =============== function _buzz2 ends ============
  5374                           
  5375                           	signat	_buzz2,90
  5376                           	global	_LCDWrite
  5377                           psect	text264,local,class=CODE,delta=2
  5378                           global __ptext264
  5379  0132                     __ptext264:
  5380                           
  5381 ;; *************** function _LCDWrite *****************
  5382 ;; Defined at:
  5383 ;;		line 4 in file "C:\Users\gf\Desktop\photoresist\project\lcd.h"
  5384 ;; Parameters:    Size  Location     Type
  5385 ;;  LCDData         2    0[COMMON] int 
  5386 ;;  RSValue         2    2[COMMON] int 
  5387 ;; Auto vars:     Size  Location     Type
  5388 ;;		None
  5389 ;; Return value:  Size  Location     Type
  5390 ;;		None               void
  5391 ;; Registers used:
  5392 ;;		wreg, status,2, status,0, btemp+1
  5393 ;; Tracked objects:
  5394 ;;		On entry : 0/0
  5395 ;;		On exit  : 0/0
  5396 ;;		Unchanged: 0/0
  5397 ;; Data sizes:     COMMON   BANK0   BANK1   BANK2
  5398 ;;      Params:         4       0       0       0
  5399 ;;      Locals:         0       0       0       0
  5400 ;;      Temps:          2       0       0       0
  5401 ;;      Totals:         6       0       0       0
  5402 ;;Total ram usage:        6 bytes
  5403 ;; Hardware stack levels used:    1
  5404 ;; This function calls:
  5405 ;;		Nothing
  5406 ;; This function is called by:
  5407 ;;		_LCDInit
  5408 ;;		_Increment
  5409 ;;		_Message1
  5410 ;;		_Message2
  5411 ;;		_main
  5412 ;; This function uses a non-reentrant model
  5413 ;;
  5414                           psect	text264
  5415                           	file	"C:\Users\gf\Desktop\photoresist\project\lcd.h"
  5416                           	line	4
  5417                           	global	__size_of_LCDWrite
  5418  004D                     	__size_of_LCDWrite	equ	__end_of_LCDWrite-_LCDWrite
  5419                           	
  5420  0132                     _LCDWrite:	
  5421                           	opt	stack 5
  5422                           ; Regs used in _LCDWrite: [wreg+status,2+status,0+btemp+1]
  5423                           	line	6
  5424                           	
  5425  0132                     l3767:	
  5426                           ;lcd.h: 6: PORTC = (LCDData >> 4) & 0x0F;
  5427  0132  0871               	movf	(LCDWrite@LCDData+1),w
  5428  0133  00F5               	movwf	(??_LCDWrite+0)+0+1
  5429  0134  0870               	movf	(LCDWrite@LCDData),w
  5430  0135  00F4               	movwf	(??_LCDWrite+0)+0
  5431  0136  3004               	movlw	04h
  5432  0137  00FF               	movwf	btemp+1
  5433  0138                     u3195:
  5434  0138  0D75               	rlf	(??_LCDWrite+0)+1,w
  5435  0139  0CF5               	rrf	(??_LCDWrite+0)+1,f
  5436  013A  0CF4               	rrf	(??_LCDWrite+0)+0,f
  5437  013B  0BFF               	decfsz	btemp+1,f
  5438  013C  2938               	goto	u3195
  5439  013D  0874               	movf	0+(??_LCDWrite+0)+0,w
  5440  013E  390F               	andlw	0Fh
  5441  013F  1283               	bcf	status, 5	;RP0=0, select bank0
  5442  0140  1303               	bcf	status, 6	;RP1=0, select bank0
  5443  0141  0087               	movwf	(7)	;volatile
  5444                           	line	7
  5445                           	
  5446  0142                     l3769:	
  5447                           ;lcd.h: 7: RC5 = RSValue;
  5448  0142  1872               	btfsc	(LCDWrite@RSValue),0
  5449  0143  2945               	goto	u3201
  5450  0144  2949               	goto	u3200
  5451                           	
  5452  0145                     u3201:
  5453  0145  1283               	bcf	status, 5	;RP0=0, select bank0
  5454  0146  1303               	bcf	status, 6	;RP1=0, select bank0
  5455  0147  1687               	bsf	(61/8),(61)&7
  5456  0148  294C               	goto	u3214
  5457  0149                     u3200:
  5458  0149  1283               	bcf	status, 5	;RP0=0, select bank0
  5459  014A  1303               	bcf	status, 6	;RP1=0, select bank0
  5460  014B  1287               	bcf	(61/8),(61)&7
  5461  014C                     u3214:
  5462                           	line	8
  5463                           	
  5464  014C                     l3771:	
  5465                           ;lcd.h: 8: RC4 = 1; RC4 = 0;
  5466  014C  1607               	bsf	(60/8),(60)&7
  5467                           	
  5468  014D                     l3773:	
  5469  014D  1207               	bcf	(60/8),(60)&7
  5470                           	line	10
  5471                           	
  5472  014E                     l3775:	
  5473                           ;lcd.h: 10: PORTC = LCDData & 0x0F;
  5474  014E  0870               	movf	(LCDWrite@LCDData),w
  5475  014F  390F               	andlw	0Fh
  5476  0150  0087               	movwf	(7)	;volatile
  5477                           	line	11
  5478                           	
  5479  0151                     l3777:	
  5480                           ;lcd.h: 11: RC5 = RSValue;
  5481  0151  1872               	btfsc	(LCDWrite@RSValue),0
  5482  0152  2954               	goto	u3221
  5483  0153  2958               	goto	u3220
  5484                           	
  5485  0154                     u3221:
  5486  0154  1283               	bcf	status, 5	;RP0=0, select bank0
  5487  0155  1303               	bcf	status, 6	;RP1=0, select bank0
  5488  0156  1687               	bsf	(61/8),(61)&7
  5489  0157  295B               	goto	u3234
  5490  0158                     u3220:
  5491  0158  1283               	bcf	status, 5	;RP0=0, select bank0
  5492  0159  1303               	bcf	status, 6	;RP1=0, select bank0
  5493  015A  1287               	bcf	(61/8),(61)&7
  5494  015B                     u3234:
  5495                           	line	12
  5496                           	
  5497  015B                     l3779:	
  5498                           ;lcd.h: 12: RC4 = 1; RC4 = 0;
  5499  015B  1607               	bsf	(60/8),(60)&7
  5500                           	
  5501  015C                     l3781:	
  5502  015C  1207               	bcf	(60/8),(60)&7
  5503                           	line	14
  5504                           	
  5505  015D                     l3783:	
  5506                           ;lcd.h: 14: if ((0 == (LCDData & 0xFC)) && (0 == RSValue))
  5507  015D  30FC               	movlw	low(0FCh)
  5508  015E  0570               	andwf	(LCDWrite@LCDData),w
  5509  015F  00F4               	movwf	(??_LCDWrite+0)+0
  5510  0160  3000               	movlw	high(0FCh)
  5511  0161  0571               	andwf	(LCDWrite@LCDData+1),w
  5512  0162  00F5               	movwf	1+(??_LCDWrite+0)+0
  5513  0163  0875               	movf	1+(??_LCDWrite+0)+0,w
  5514  0164  0474               	iorwf	0+(??_LCDWrite+0)+0,w
  5515  0165  1D03               	skipz
  5516  0166  2968               	goto	u3241
  5517  0167  2969               	goto	u3240
  5518  0168                     u3241:
  5519  0168  2978               	goto	l3789
  5520  0169                     u3240:
  5521                           	
  5522  0169                     l3785:	
  5523  0169  0873               	movf	((LCDWrite@RSValue+1)),w
  5524  016A  0472               	iorwf	((LCDWrite@RSValue)),w
  5525  016B  1D03               	skipz
  5526  016C  296E               	goto	u3251
  5527  016D  296F               	goto	u3250
  5528  016E                     u3251:
  5529  016E  2978               	goto	l3789
  5530  016F                     u3250:
  5531                           	line	15
  5532                           	
  5533  016F                     l3787:	
  5534                           ;lcd.h: 15: _delay((unsigned long)((5)*(4000000/4000.0)));
  5535                           	opt asmopt_off
  5536  016F  3007               movlw	7
  5537  0170  00F5               movwf	((??_LCDWrite+0)+0+1),f
  5538  0171  307D               	movlw	125
  5539  0172  00F4               movwf	((??_LCDWrite+0)+0),f
  5540  0173                     u4667:
  5541  0173  0BF4               	decfsz	((??_LCDWrite+0)+0),f
  5542  0174  2973               	goto	u4667
  5543  0175  0BF5               	decfsz	((??_LCDWrite+0)+0+1),f
  5544  0176  2973               	goto	u4667
  5545                           opt asmopt_on
  5546                           
  5547  0177  297E               	goto	l925
  5548                           	line	16
  5549                           	
  5550  0178                     l923:	
  5551                           	line	17
  5552                           	
  5553  0178                     l3789:	
  5554                           ;lcd.h: 16: else
  5555                           ;lcd.h: 17: _delay((unsigned long)((200)*(4000000/4000000.0)));
  5556                           	opt asmopt_off
  5557  0178  3042               movlw	66
  5558  0179  00F4               movwf	(??_LCDWrite+0)+0,f
  5559  017A                     u4677:
  5560  017A  0BF4               decfsz	(??_LCDWrite+0)+0,f
  5561  017B  297A               	goto	u4677
  5562  017C  0064               	clrwdt
  5563                           opt asmopt_on
  5564                           
  5565  017D  297E               	goto	l925
  5566                           	
  5567  017E                     l924:	
  5568                           	line	19
  5569                           	
  5570  017E                     l925:	
  5571  017E  0008               	return
  5572                           	opt stack 0
  5573                           GLOBAL	__end_of_LCDWrite
  5574  017F                     	__end_of_LCDWrite:
  5575 ;; =============== function _LCDWrite ends ============
  5576                           
  5577                           	signat	_LCDWrite,8312
  5578                           psect	text265,local,class=CODE,delta=2
  5579                           global __ptext265
  5580  0000                     __ptext265:
  5581                           	global	btemp
  5582  007E                     	btemp set 07Eh
  5583                           
  5584                           	DABS	1,126,2	;btemp
  5585                           	global	wtemp0
  5586  007E                     	wtemp0 set btemp


HI-TECH Software PICC Macro Assembler V9.82 build 9453 
Symbol Table                                                                                   Sat Feb 06 19:51:19 2021

                   _j 0032                     _n 0034                     _p 0036                     _q 0038  
                   _x 007B                     _y 003A                    _RD 0C60                    _WR 0C61  
                  _t1 007D                    _t2 003D                    _t3 003E                    _t4 003F  
                  fsr 0004                   l923 0178                   l931 00A8                   l924 017E  
                 l940 0D7F                   l925 017E                   l941 0EEA                   l942 0ED0  
                 l950 0E69                   l934 0D53                   l935 0EE9                   l951 0E72  
                 l943 0DC1                   l928 0299                   l960 0EE8                   l936 0EE3  
                 l952 0E89                   l944 0DF1                   l961 0F10                   l953 0EC5  
                 l945 0E27                   l937 0D63                   l962 0F1F                   l938 0ED1  
                 l954 0EBF                   l970 0FFF                   l946 0E57                   l963 0F67  
                 l955 0EA4                   l947 0E58                   l939 0D6B                   l980 022F  
                 l964 0F36                   l956 0EAD                   l948 0E8A                   l981 0238  
                 l973 00EB                   l957 0FFF                   l965 0F66                   l949 0E84  
                 l966 0F4D                   l958 0EC4                   l990 02B9                   l967 0F65  
                 l959 0ECF                   l991 0322                   l984 00FF                   l976 01D7  
                 l968 0F64                   l992 031D                   l985 0129                   l969 0FFE  
                 l993 02DB                   l986 0131                   l994 030B                   l979 01EB  
                 l995 0309                   _GIE 005F                   l996 030A                   l997 07D1  
                 l989 02AF                   l998 0322                   l999 0370                   _RA0 0028  
                 _RA1 0029                   _RA2 002A                   _RA3 002B                   _RA4 002C  
                 _RA5 002D                   _RB4 0034                   _RB5 0035                   _RC4 003C  
                 _RB6 0036                   _RC5 003D                   _RB7 0037                   _mas 0020  
                 fsr0 0004                   indf 0000       __end_of_LCDInit 029A                  l1000 036B  
                l1001 0329                  l1010 0387                  l1002 0359                  l1011 038F  
                l1003 0357                  l1020 0421                  l1012 03B6                  l1004 0358  
                l1021 0439                  l1013 03B7                  l1005 0370                  l1030 0498  
                l1022 0498                  l1006 03D0                  l1014 03CF                  l1031 0557  
                l1023 0493                  l1015 0439                  l1007 03CA                  l1040 0557  
                l1032 0552                  l1024 0440                  l1016 0434                  l1008 0377  
                l1041 0558                  l1033 049F                  l1025 0481                  l1017 03F2  
                l1009 03B8                  l1050 0655                  l1042 05C1                  l1034 0540  
                l1026 0450                  l1018 0422                  l1051 05C8                  l1043 05BC  
                l1035 053F                  l1027 0458                  l1019 0420                  l1060 06B4  
                l1052 0643                  l1044 057A                  l1036 04C6                  l1028 047F  
                l1061 0661                  l1053 05DF                  l1045 05AA                  l1037 04E7  
                l1029 0480                  l1070 06DB                  l1062 06A2                  l1054 0641  
                l1046 05A8                  l1038 0505                  l1071 070B                  l1063 0671  
                l1055 0607                  l1047 05A9                  l1039 052D                  l1080 0741  
                l1072 0709                  l1064 0679                  l1056 0640                  l1048 05C1  
                l1081 0768                  l1073 070A                  l1065 06A0                  l1057 0642  
                l1049 065A                  l1090 07CF                  l1082 0769                  l1074 0722  
                l1066 06A1                  l1058 065A                  l1091 07D0                  l1083 0781  
                l1075 0781                  l1059 06BA                  l1067 06B9                  l1092 07F2  
                l1084 07CF                  l1076 077C                  l1068 0722                  l1093 07FE  
                l1085 07CA                  l1077 0729                  l1069 071D                  l1094 07FE  
                l1086 0788                  l1078 076A                  l1087 07B8                  l1079 0739  
                l1088 07B6                  l4001 0F7A                  l1089 07B7                  l4011 0FAF  
                l4003 0F81                  l4021 0FDC                  l4013 0FB6                  l4005 0F8F  
                l4101 03B8                  l4023 0FE4                  l4015 0FC4                  l4007 0F9A  
                l4111 03E1                  l4103 03CA                  l4031 02A3                  l4025 0FEC  
                l4017 0FCC                  l4009 0FA1                  l4201 0552                  l4121 0406  
                l4113 03E9                  l4105 03D0                  l4041 02C5                  l4033 02A6  
                l4027 0FF4                  l4019 0FD4                  l4211 0571                  l4203 0558  
                l4131 043D                  l4123 0411                  l4115 03EF                  l4107 03DC  
                l4051 02DB                  l4043 02C6                  l4035 02B5                  l4301 0700  
                l4221 0599                  l4213 0577                  l4205 0564                  l4141 0457  
                l4133 0440                  l4125 0417                  l4117 03F2                  l4109 03DD  
                l4053 02E2                  l4061 030B                  l4045 02CA                  l4037 02B9  
                l4029 029A                  l4311 0730                  l4303 070B                  l4231 05C8  
                l4223 059F                  l4215 057A                  l4207 0565                  l4143 0458  
                l4135 0447                  l4151 0481                  l4119 03F9                  l4127 0422  
                l4071 033D                  l4055 02EF                  l4063 031D                  l4047 02D2  
                l4039 02C1                  l4321 074E                  l4313 0738                  l4305 071D  
                l4241 05F2                  l4233 05CF                  l4217 0581                  l4225 05AA  
                l4209 0569                  l4161 04B3                  l4145 0465                  l4137 044F  
                l4153 0493                  l4129 0434                  l4081 0374                  l4073 0348  
                l4065 0326                  l4057 02FA                  l4049 02D8                  l4331 0785  
                l4323 0759                  l4315 0739                  l4307 0726                  l4251 0637  
                l4243 05FD                  l4235 05D6                  l4219 058E                  l4227 05BC  
                l4171 04D9                  l4163 04B7                  l4155 049C                  l4147 0470  
                l4139 0450                  l4091 038E                  l4083 0377                  l4075 034E  
                l4067 0329                  l4059 0300                  l4341 07AD                  l4333 0788  
                l4325 075F                  l4317 0740                  l4309 0729                  l4261 0668  
                l4245 0607                  l4237 05DF                  l4253 0643                  l4229 05C5  
                l4181 04F4                  l4165 04C5                  l4173 04E7                  l4157 049F  
                l4149 0476                  l4093 038F                  l4085 037E                  l4069 0330  
                l4077 0359                  l4351 07E3                  l4335 078F                  l4343 07B8  
                l4319 0741                  l4327 076A                  l4271 0686                  l4263 0670  
                l4247 061D                  l4239 05EC                  l4255 0655                  l4191 051F  
                l4183 04F6                  l4175 04ED                  l4167 04C6                  l4159 04A6  
                l4095 039C                  l4087 0386                  l4079 036B                  l3801 011B  
                l4353 07E9                  l4337 079C                  l4345 07CA                  l4329 077C  
                l4273 0691                  l4265 0671                  l4257 065E                  l4281 06BA  
                l4249 062A                  l4185 0504                  l4193 052D                  l4177 04F2  
                l4169 04D3                  l4097 03A7                  l4089 0387                  l3803 0129  
                l3811 01EE                  l4355 07F2                  l4339 07A7                  l4291 06D8  
                l4283 06C6                  l4275 0697                  l4267 0678                  l4259 0661  
                l4195 0530                  l4187 0505                  l4179 04F3                  l4099 03AD  
                l4347 07D1                  l3813 0202                  l3805 01D8                  l3821 0246  
                l3901 0DCE                  l4357 07FA                  l4349 07D8                  l4293 06DB  
                l4285 06C7                  l4269 0679                  l4277 06A2                  l4197 053B  
                l4189 0519                  l3815 0221                  l3807 01DC                  l3831 025C  
                l3823 0247                  l3911 0E18                  l3903 0DDB                  l4295 06E2  
                l4287 06CA                  l4279 06B4                  l4199 0540                  l3809 01EA  
                l3817 022F                  l3841 0283                  l3833 0266                  l3825 0250  
                l3921 0E49                  l3913 0E26                  l3905 0DE3                  l4297 06EF  
                l4289 06D2                  l3771 014C                  l3843 028E                  l3835 0267  
                l3827 0253                  l3819 0239                  l3851 00A3                  l3931 0E71  
                l3923 0E58                  l3915 0E27                  l3907 0DF1                  l4299 06FA  
                l3781 015C                  l3773 014D                  l3837 026D                  l3829 0259  
                l3853 00A6                  l3845 0091                  l3941 0E9B                  l3933 0E72  
                l3925 0E60                  l3917 0E34                  l3909 0E12                  l3861 0D57  
                l3783 015D                  l3775 014E                  l3767 0132                  l3791 00EC  
                l3839 0278                  l3847 0096                  l3855 017F                  l3951 0EBF  
                l3943 0EA1                  l3935 0E84                  l3927 0E66                  l3919 0E41  
                l3871 0D71                  l3863 0D5C                  l3785 0169                  l3777 0151  
                l3769 0142                  l3793 00F0                  l3849 009F                  l3857 00A9  
                l3945 0EA4                  l3953 0EC5                  l3929 0E69                  l3937 0E8A  
                l3881 0D85                  l3873 0D79                  l3865 0D60                  l3961 0EEA  
                l3787 016F                  l3779 015B                  l3795 00FE                  l3971 0F0F  
                l3963 0EF8                  l3955 0EC9                  l3947 0EAC                  l3939 0E8E  
                l3891 0DA1                  l3883 0D89                  l3875 0D7C                  l3867 0D63  
                l3859 0D53                  l3789 0178                  l3797 0102                  l3981 0F2F  
                l3965 0EFF                  l3973 0F10                  l3949 0EAD                  l3893 0DAC  
                l3885 0D8A                  l3877 0D7D                  l3869 0D6B                  l3957 0ED1  
                l3799 0109                  l3991 0F4D                  l3983 0F31                  l3975 0F18  
                l3967 0F04                  l3895 0DB2                  l3887 0D8B                  l3879 0D7F  
                l3959 0EE3                  l3993 0F5D                  l3985 0F36                  l3977 0F1A  
                l3969 0F09                  l3897 0DC0                  l3889 0D96                  l3995 0F5F  
                l3987 0F46                  l3979 0F1F                  l3899 0DC1                  l3989 0F48  
                l3997 0F67                  l3999 0F6C                  u3200 0149                  u4000 06B8  
                u3201 0145                  u4001 06B7                  u4010 06D8                  u4011 06D7  
                u3220 0158                  u3300 0D60                  u4100 0780                  u4020 06E2  
                u3221 0154                  u3301 0D5F                  u4101 077F                  u4021 06E1  
                u3214 014C                  u3310 0D6A                  u4110 0785                  u4030 06EF  
                u3311 0D69                  u4111 0784                  u4031 06EE                  u3240 0169  
                u3400 0E88                  u3320 0D79                  u4120 078F                  u4040 0721  
                u3241 0168                  u3401 0E87                  u3321 0D78                  u4121 078E  
                u4041 0720                  u3250 016F                  u3234 015B                  u3410 0EA1  
                u3330 0D85                  u4130 079C                  u4050 0726                  u3251 016E  
                u3411 0EA0                  u3331 0D84                  u4131 079B                  u4051 0725  
                u4035 06EB                  u3260 00FD                  u3500 0F2F                  u3420 0EAB  
                u3340 0DBF                  u4140 07CE                  u4060 0730                  u3261 00FC  
                u3421 0EAA                  u3341 0DBE                  u4141 07CD                  u4061 072F  
                u3270 0128                  u3510 0F46                  u3430 0EC3                  u3350 0DF0  
                u4150 07D8                  u4070 0737                  u3271 0127                  u3431 0EC2  
                u3351 0DEF                  u4151 07D7                  u4135 0798                  u4071 0736  
                u4207 03BC                  u3280 01E9                  u3520 0F5D                  u3440 0EE7  
                u3360 0E25                  u4080 073F                  u3600 036F                  u3265 00F9  
                u3281 01E8                  u3441 0EE6                  u3361 0E24                  u3345 0DBB  
                u4081 073E                  u4217 03D4                  u3601 036E                  u3290 022E  
                u3450 0EFF                  u3370 0E56                  u4090 074E                  u3610 0374  
                u3530 02D8                  u3195 0138                  u3275 0124                  u3291 022D  
                u3451 0EFE                  u3371 0E55                  u3355 0DEC                  u4091 074D  
                u4307 06A6                  u4227 03E5                  u3611 0373                  u3531 02D7  
                u3460 0F04                  u3380 0E66                  u3700 0438                  u3620 037E  
                u3540 02E2                  u3285 01E5                  u3461 0F03                  u3381 0E65  
                u3365 0E21                  u4317 06BE                  u3701 0437                  u4237 0426  
                u3621 037D                  u3541 02E1                  u3470 0F09                  u3390 0E70  
                u3710 043D                  u3630 0385                  u3550 02EF                  u3295 022A  
                u3471 0F08                  u4407 0EB1                  u3391 0E6F                  u3375 0E52  
                u4095 074A                  u4327 06CE                  u4247 0485                  u3711 043C  
                u3631 0384                  u3551 02EE                  u4167 02BD                  u3480 0F0E  
                u3800 04C4                  u3720 0447                  u3640 038D                  u3560 0321  
                u3481 0F0D                  u4417 0ED5                  u4337 070F                  u4257 0544  
                u3801 04C3                  u3721 0446                  u3641 038C                  u3561 0320  
                u4177 02CE                  u3490 0F18                  u3810 04E6                  u3730 044E  
                u3650 039C                  u3570 0326                  u4507 024C                  u4427 0FC8  
                u4347 076E                  u4267 055C                  u3811 04E5                  u3731 044D  
                u3651 039B                  u3571 0325                  u4187 030F                  u3555 02EB  
                u3900 05CF                  u3820 0503                  u3740 0456                  u3660 03CE  
                u3580 0330                  u4517 0256                  u4437 0FD0                  u4357 07BC  
                u3901 05CE                  u4277 056D                  u3821 0502                  u3805 04C0  
                u3741 0455                  u3661 03CD                  u4197 035D                  u3581 032F  
                u3910 05D6                  u3830 052C                  u3750 0465                  u3670 03EF  
                u3590 033D                  u4607 0211                  u4527 025F                  u4447 0FD8  
                u4367 07F6                  u3911 05D5                  u4287 05AE                  u3831 052B  
                u3815 04E2                  u3751 0464                  u3671 03EE                  u3655 0398  
                u3591 033C                  u3920 05EC                  u3840 0556                  u3760 0497  
                u3680 03F9                  u4617 0216                  u4537 026A                  u4457 0FE0  
                u4377 0E5C                  u4297 0647                  u3921 05EB                  u3841 0555  
                u3825 04FF                  u3761 0496                  u3681 03F8                  u3930 061D  
                u3850 0577                  u3770 049C                  u3690 0406                  u4627 0233  
                u4547 01F0                  u4467 0FE8                  u4387 0E76                  u3931 061C  
                u3851 0576                  u3835 0528                  u3771 049B                  u3755 0461  
                u3691 0405                  u3595 0339                  u3940 0659                  u3860 0581  
                u3780 04A6                  u4637 0104                  u4557 01F5                  u4477 0FF0  
                u4397 0E97                  u3941 0658                  u3925 05E8                  u3861 0580  
                u3781 04A5                  u3950 065E                  u3870 058E                  u3790 04B3  
                u4647 010E                  u4567 01FA                  u4487 0FF8                  u3951 065D  
                u3935 0619                  u3871 058D                  u3791 04B2                  u3695 0402  
                u3960 0668                  u3880 05C0                  u4657 012D                  u4577 01FF  
                u4497 023D                  u3961 0667                  u3881 05BF                  u3970 066F  
                u3890 05C5                  u4667 0173                  u4587 0207                  u3971 066E  
                u3891 05C4                  u3875 058A                  u3795 04AF                  u3980 0677  
                u4677 017A                  u4597 020C                  u3981 0676                  u3990 0686  
                u3991 0685                  u3995 0682                  _WREN 0C62                  _mas2 0026  
                _mas3 002C                  _flag 003C                  _main 029A                  btemp 007E  
                start 0000      __end_of_LCDWrite 017F                 ?_main 0070                 _EEADR 010D  
               _CARRY 0018                 _ANSEL 011E                 _PORTA 0005                 _PORTB 0006  
               _PORTC 0007                 _TRISA 0085                 _TRISB 0086                 _TRISC 0087  
               _Sbros 0091                 _buzz1 01D8                 _buzz2 00EC                 status 0003  
               wtemp0 007E          __end_of_main 0800      __end_of_Message1 00EC      __end_of_Message2 01D8  
              ??_main 0078             ??_LCDInit 0076                ?_Sbros 0070                ?_buzz1 0070  
              ?_buzz2 0070                _EEDATA 010C                _EECON1 018C                _EECON2 018D  
  __size_of_Increment 02AD                clrloop 007D             ?_LCDWrite 0070        __pcstackCOMMON 0070  
       __end_of_Sbros 00A9         __end_of_buzz1 0239         __end_of_buzz2 0132     __end_of_Increment 1000  
             ??_Sbros 0072               ??_buzz1 0070               ??_buzz2 0070            __pbssBANK0 0020  
          ??_LCDWrite 0074             ?_Message1 0070             ?_Message2 0070            __pmaintext 029A  
             _LCDInit 0239            ??_Message1 0076            ??_Message2 0076  end_of_initialization 008E  
   __size_of_LCDWrite 004D   start_initialization 0084             _Increment 0D53     __size_of_Message1 0043  
   __size_of_Message2 0059              ?_LCDInit 0070           __pbssCOMMON 007B            ?_Increment 0070  
           __ptext260 0091             __ptext261 0239             __ptext262 01D8             __ptext263 00EC  
           __ptext264 0132             __ptext256 0000             __ptext265 0000             __ptext257 0D53  
           __ptext258 00A9             __ptext259 017F        __size_of_Sbros 0018        __size_of_buzz1 0061  
      __size_of_buzz2 0046              _LCDWrite 0132       LCDWrite@LCDData 0070      __size_of_LCDInit 0061  
         ??_Increment 0076       LCDWrite@RSValue 0072              _Message1 00A9              _Message2 017F  
       __size_of_main 0566              clear_ram 007C  
